---
triple:          'arm64-apple-darwin'
binary-path:     '/Users/1250220/Desktop/CS-300-vector-sorting/VectorSorting'
relocations:
  - { offsetInCU: 0x520B, offset: 0x520B, size: 0x8, addend: 0x0, symName: __ZNSt3__124__put_character_sequenceB7v160006IcNS_11char_traitsIcEEEERNS_13basic_ostreamIT_T0_EES7_PKS4_m, symObjAddr: 0x1E4C, symBinAddr: 0x100005DF8, symSize: 0x1EC }
  - { offsetInCU: 0x8CE1, offset: 0x8CE1, size: 0x8, addend: 0x0, symName: __ZNSt3__1lsB7v160006IcNS_11char_traitsIcEENS_9allocatorIcEEEERNS_13basic_ostreamIT_T0_EES9_RKNS_12basic_stringIS6_S7_T1_EE, symObjAddr: 0x88, symBinAddr: 0x100004034, symSize: 0x4C }
  - { offsetInCU: 0x8D39, offset: 0x8D39, size: 0x8, addend: 0x0, symName: __ZNSt3__1lsB7v160006INS_11char_traitsIcEEEERNS_13basic_ostreamIcT_EES6_PKc, symObjAddr: 0xD4, symBinAddr: 0x100004080, symSize: 0x48 }
  - { offsetInCU: 0x8D7F, offset: 0x8D7F, size: 0x8, addend: 0x0, symName: __ZNSt3__14endlB7v160006IcNS_11char_traitsIcEEEERNS_13basic_ostreamIT_T0_EES7_, symObjAddr: 0x148, symBinAddr: 0x1000040F4, symSize: 0x58 }
  - { offsetInCU: 0x8DBF, offset: 0x8DBF, size: 0x8, addend: 0x0, symName: __ZNSt3__17getlineB7v160006IcNS_11char_traitsIcEENS_9allocatorIcEEEERNS_13basic_istreamIT_T0_EES9_RNS_12basic_stringIS6_S7_T1_EE, symObjAddr: 0x3BC, symBinAddr: 0x100004368, symSize: 0x5C }
  - { offsetInCU: 0x8E17, offset: 0x8E17, size: 0x8, addend: 0x0, symName: __ZNSt3__1rsB7v160006IcNS_11char_traitsIcEENS_9allocatorIcEEEERNS_13basic_istreamIT_T0_EES9_RNS_12basic_stringIS6_S7_T1_EE, symObjAddr: 0x418, symBinAddr: 0x1000043C4, symSize: 0x308 }
  - { offsetInCU: 0x8EE4, offset: 0x8EE4, size: 0x8, addend: 0x0, symName: __ZNSt3__14swapB7v160006I3BidEENS_9enable_ifIXaasr21is_move_constructibleIT_EE5valuesr18is_move_assignableIS3_EE5valueEvE4typeERS3_S6_, symObjAddr: 0xE70, symBinAddr: 0x100004E1C, symSize: 0x50 }
  - { offsetInCU: 0x8F35, offset: 0x8F35, size: 0x8, addend: 0x0, symName: __ZNSt3__16removeB7v160006INS_11__wrap_iterIPcEEcEET_S4_S4_RKT0_, symObjAddr: 0x1134, symBinAddr: 0x1000050E0, symSize: 0x108 }
  - { offsetInCU: 0x8FC7, offset: 0x8FC7, size: 0x8, addend: 0x0, symName: __ZNSt3__119__debug_db_insert_cB7v160006INS_12basic_stringIcNS_11char_traitsIcEENS_9allocatorIcEEEEEEvPT_, symObjAddr: 0x1D08, symBinAddr: 0x100005CB4, symSize: 0x10 }
  - { offsetInCU: 0x8FF8, offset: 0x8FF8, size: 0x8, addend: 0x0, symName: __ZNSt3__116__pad_and_outputB7v160006IcNS_11char_traitsIcEEEENS_19ostreambuf_iteratorIT_T0_EES6_PKS4_S8_S8_RNS_8ios_baseES4_, symObjAddr: 0x20D0, symBinAddr: 0x10000607C, symSize: 0x240 }
  - { offsetInCU: 0x90C7, offset: 0x90C7, size: 0x8, addend: 0x0, symName: __ZNSt3__19use_facetB7v160006INS_5ctypeIcEEEERKT_RKNS_6localeE, symObjAddr: 0x265C, symBinAddr: 0x100006608, symSize: 0x2C }
  - { offsetInCU: 0x94A7, offset: 0x94A7, size: 0x8, addend: 0x0, symName: __ZNSt3__112__to_addressB7v160006IKcEEPT_S3_, symObjAddr: 0x26F4, symBinAddr: 0x1000066A0, symSize: 0x14 }
  - { offsetInCU: 0x950F, offset: 0x950F, size: 0x8, addend: 0x0, symName: __ZNSt3__118__constexpr_strlenB7v160006EPKc, symObjAddr: 0x28C0, symBinAddr: 0x10000686C, symSize: 0x24 }
  - { offsetInCU: 0x953B, offset: 0x953B, size: 0x8, addend: 0x0, symName: __ZNSt3__17getlineB7v160006IcNS_11char_traitsIcEENS_9allocatorIcEEEERNS_13basic_istreamIT_T0_EES9_RNS_12basic_stringIS6_S7_T1_EES6_, symObjAddr: 0x28E4, symBinAddr: 0x100006890, symSize: 0x238 }
  - { offsetInCU: 0x9B83, offset: 0x9B83, size: 0x8, addend: 0x0, symName: __ZNSt3__125__debug_db_invalidate_allB7v160006INS_12basic_stringIcNS_11char_traitsIcEENS_9allocatorIcEEEEEEvPT_, symObjAddr: 0x2DAC, symBinAddr: 0x100006D58, symSize: 0x10 }
  - { offsetInCU: 0x9FEA, offset: 0x9FEA, size: 0x8, addend: 0x0, symName: __ZNSt3__119__debug_db_insert_cB7v160006INS_6vectorI3BidNS_9allocatorIS2_EEEEEEvPT_, symObjAddr: 0x3190, symBinAddr: 0x10000713C, symSize: 0x10 }
  - { offsetInCU: 0xA01B, offset: 0xA01B, size: 0x8, addend: 0x0, symName: __ZNSt3__118__debug_db_erase_cB7v160006INS_6vectorI3BidNS_9allocatorIS2_EEEEEEvPT_, symObjAddr: 0x3470, symBinAddr: 0x10000741C, symSize: 0x10 }
  - { offsetInCU: 0xA04C, offset: 0xA04C, size: 0x8, addend: 0x0, symName: __ZNSt3__112__to_addressB7v160006I3BidEEPT_S3_, symObjAddr: 0x358C, symBinAddr: 0x100007538, symSize: 0x14 }
  - { offsetInCU: 0xA081, offset: 0xA081, size: 0x8, addend: 0x0, symName: __ZNSt3__119__libcpp_deallocateB7v160006EPvmm, symObjAddr: 0x36C4, symBinAddr: 0x100007670, symSize: 0x30 }
  - { offsetInCU: 0xA0C9, offset: 0xA0C9, size: 0x8, addend: 0x0, symName: __ZNSt3__127__do_deallocate_handle_sizeB7v160006IJEEEvPvmDpT_, symObjAddr: 0x36F4, symBinAddr: 0x1000076A0, symSize: 0x28 }
  - { offsetInCU: 0xA107, offset: 0xA107, size: 0x8, addend: 0x0, symName: __ZNSt3__124__libcpp_operator_deleteB7v160006IJPvEEEvDpT_, symObjAddr: 0x371C, symBinAddr: 0x1000076C8, symSize: 0x24 }
  - { offsetInCU: 0xA13C, offset: 0xA13C, size: 0x8, addend: 0x0, symName: __ZNSt3__13maxB7v160006ImEERKT_S3_S3_, symObjAddr: 0x3D90, symBinAddr: 0x100007D3C, symSize: 0x2C }
  - { offsetInCU: 0xA17F, offset: 0xA17F, size: 0x8, addend: 0x0, symName: __ZNSt3__13minB7v160006ImEERKT_S3_S3_, symObjAddr: 0x3DBC, symBinAddr: 0x100007D68, symSize: 0x2C }
  - { offsetInCU: 0xA1C2, offset: 0xA1C2, size: 0x8, addend: 0x0, symName: __ZNSt3__13minB7v160006ImNS_6__lessImmEEEERKT_S5_S5_T0_, symObjAddr: 0x3E34, symBinAddr: 0x100007DE0, symSize: 0x54 }
  - { offsetInCU: 0xA257, offset: 0xA257, size: 0x8, addend: 0x0, symName: __ZNSt3__120__throw_length_errorB7v160006EPKc, symObjAddr: 0x3F0C, symBinAddr: 0x100007EB8, symSize: 0x64 }
  - { offsetInCU: 0xA27F, offset: 0xA27F, size: 0x8, addend: 0x0, symName: __ZNSt3__13maxB7v160006ImNS_6__lessImmEEEERKT_S5_S5_T0_, symObjAddr: 0x3FF0, symBinAddr: 0x100007F9C, symSize: 0x54 }
  - { offsetInCU: 0xA2D9, offset: 0xA2D9, size: 0x8, addend: 0x0, symName: __ZNSt3__119__allocate_at_leastB7v160006INS_9allocatorI3BidEEEENS_19__allocation_resultINS_16allocator_traitsIT_E7pointerEEERS6_m, symObjAddr: 0x4160, symBinAddr: 0x10000810C, symSize: 0x40 }
  - { offsetInCU: 0xA31C, offset: 0xA31C, size: 0x8, addend: 0x0, symName: __ZNSt3__117__libcpp_allocateB7v160006Emm, symObjAddr: 0x42E8, symBinAddr: 0x100008294, symSize: 0x28 }
  - { offsetInCU: 0xA359, offset: 0xA359, size: 0x8, addend: 0x0, symName: __ZNSt3__121__libcpp_operator_newB7v160006IJmEEEPvDpT_, symObjAddr: 0x4310, symBinAddr: 0x1000082BC, symSize: 0x24 }
  - { offsetInCU: 0xA392, offset: 0xA392, size: 0x8, addend: 0x0, symName: __ZNSt3__142__uninitialized_allocator_move_if_noexceptB7v160006INS_9allocatorI3BidEENS_16reverse_iteratorIPS2_EES6_S6_EET2_RT_T0_T1_S7_, symObjAddr: 0x4398, symBinAddr: 0x100008344, symSize: 0x12C }
  - { offsetInCU: 0xA432, offset: 0xA432, size: 0x8, addend: 0x0, symName: __ZNSt3__14swapB7v160006IP3BidEENS_9enable_ifIXaasr21is_move_constructibleIT_EE5valuesr18is_move_assignableIS4_EE5valueEvE4typeERS4_S7_, symObjAddr: 0x4510, symBinAddr: 0x1000084BC, symSize: 0x3C }
  - { offsetInCU: 0xA483, offset: 0xA483, size: 0x8, addend: 0x0, symName: __ZNSt3__125__debug_db_invalidate_allB7v160006INS_6vectorI3BidNS_9allocatorIS2_EEEEEEvPT_, symObjAddr: 0x4614, symBinAddr: 0x1000085C0, symSize: 0x10 }
  - { offsetInCU: 0xA4B4, offset: 0xA4B4, size: 0x8, addend: 0x0, symName: __ZNSt3__122__make_exception_guardB7v160006INS_29_AllocatorDestroyRangeReverseINS_9allocatorI3BidEENS_16reverse_iteratorIPS3_EEEEEENS_28__exception_guard_exceptionsIT_EESA_, symObjAddr: 0x4624, symBinAddr: 0x1000085D0, symSize: 0x4C }
  - { offsetInCU: 0xA4EA, offset: 0xA4EA, size: 0x8, addend: 0x0, symName: __ZNSt3__1neB7v160006IP3BidS2_EEbRKNS_16reverse_iteratorIT_EERKNS3_IT0_EE, symObjAddr: 0x46B4, symBinAddr: 0x100008660, symSize: 0x48 }
  - { offsetInCU: 0xA536, offset: 0xA536, size: 0x8, addend: 0x0, symName: __ZNSt3__112__to_addressB7v160006INS_16reverse_iteratorIP3BidEEvEENS_5decayIDTclsr19__to_address_helperIT_EE6__callclsr3stdE7declvalIRKS6_EEEEE4typeES8_, symObjAddr: 0x4730, symBinAddr: 0x1000086DC, symSize: 0x24 }
  - { offsetInCU: 0xA56C, offset: 0xA56C, size: 0x8, addend: 0x0, symName: __ZNSt3__115__debug_db_swapB7v160006INS_12basic_stringIcNS_11char_traitsIcEENS_9allocatorIcEEEEEEvPT_S8_, symObjAddr: 0x4A00, symBinAddr: 0x1000089AC, symSize: 0x14 }
  - { offsetInCU: 0xA5D4, offset: 0xA5D4, size: 0x8, addend: 0x0, symName: __ZNSt3__119__allocator_destroyB7v160006INS_9allocatorI3BidEENS_16reverse_iteratorINS4_IPS2_EEEES7_EEvRT_T0_T1_, symObjAddr: 0x4B74, symBinAddr: 0x100008B20, symSize: 0x70 }
  - { offsetInCU: 0xA639, offset: 0xA639, size: 0x8, addend: 0x0, symName: __ZNSt3__1neB7v160006INS_16reverse_iteratorIP3BidEES4_EEbRKNS1_IT_EERKNS1_IT0_EE, symObjAddr: 0x4C20, symBinAddr: 0x100008BCC, symSize: 0x60 }
  - { offsetInCU: 0xA685, offset: 0xA685, size: 0x8, addend: 0x0, symName: __ZNSt3__112__to_addressB7v160006INS_16reverse_iteratorINS1_IP3BidEEEEvEENS_5decayIDTclsr19__to_address_helperIT_EE6__callclsr3stdE7declvalIRKS7_EEEEE4typeES9_, symObjAddr: 0x4C80, symBinAddr: 0x100008C2C, symSize: 0x24 }
  - { offsetInCU: 0xA708, offset: 0xA708, size: 0x8, addend: 0x0, symName: __ZNSt3__118__constexpr_memcmpB7v160006IcEEiPKT_S3_m, symObjAddr: 0x5200, symBinAddr: 0x1000091AC, symSize: 0x34 }
  - { offsetInCU: 0xA759, offset: 0xA759, size: 0x8, addend: 0x0, symName: __ZNSt3__14findB7v160006INS_11__wrap_iterIPcEEcEET_S4_S4_RKT0_, symObjAddr: 0x5670, symBinAddr: 0x10000961C, symSize: 0x80 }
  - { offsetInCU: 0xA7B3, offset: 0xA7B3, size: 0x8, addend: 0x0, symName: __ZNSt3__1neB7v160006IPcEEbRKNS_11__wrap_iterIT_EES6_, symObjAddr: 0x56F0, symBinAddr: 0x10000969C, symSize: 0x34 }
  - { offsetInCU: 0xA7F6, offset: 0xA7F6, size: 0x8, addend: 0x0, symName: __ZNSt3__1eqB7v160006IPcEEbRKNS_11__wrap_iterIT_EES6_, symObjAddr: 0x575C, symBinAddr: 0x100009708, symSize: 0x48 }
  - { offsetInCU: 0xA839, offset: 0xA839, size: 0x8, addend: 0x0, symName: __ZNSt3__1miB7v160006IPKcPcEEDTmicldtfp_4baseEcldtfp0_4baseEERKNS_11__wrap_iterIT_EERKNS5_IT0_EE, symObjAddr: 0x57A4, symBinAddr: 0x100009750, symSize: 0x40 }
  - { offsetInCU: 0xA885, offset: 0xA885, size: 0x8, addend: 0x0, symName: __ZNSt3__1miB7v160006IPKcS2_EEDTmicldtfp_4baseEcldtfp0_4baseEERKNS_11__wrap_iterIT_EERKNS4_IT0_EE, symObjAddr: 0x57E4, symBinAddr: 0x100009790, symSize: 0x40 }
  - { offsetInCU: 0xA8D1, offset: 0xA8D1, size: 0x8, addend: 0x0, symName: __ZNSt3__115__debug_db_swapB7v160006INS_6vectorI3BidNS_9allocatorIS2_EEEEEEvPT_S7_, symObjAddr: 0x5A04, symBinAddr: 0x1000099B0, symSize: 0x14 }
  - { offsetInCU: 0xAD14, offset: 0xAD14, size: 0x8, addend: 0x0, symName: __ZSt28__throw_bad_array_new_lengthB7v160006v, symObjAddr: 0x42B4, symBinAddr: 0x100008260, symSize: 0x34 }
  - { offsetInCU: 0xB65F, offset: 0xB65F, size: 0x8, addend: 0x0, symName: __ZNSt3__16vectorI3BidNS_9allocatorIS1_EEE26__swap_out_circular_bufferERNS_14__split_bufferIS1_RS3_EE, symObjAddr: 0x3BD0, symBinAddr: 0x100007B7C, symSize: 0x118 }
  - { offsetInCU: 0xD83B, offset: 0xD83B, size: 0x8, addend: 0x0, symName: __Z10displayBid3Bid, symObjAddr: 0x0, symBinAddr: 0x100003FAC, symSize: 0x88 }
  - { offsetInCU: 0xD865, offset: 0xD865, size: 0x8, addend: 0x0, symName: __ZNSt3__113basic_ostreamIcNS_11char_traitsIcEEElsB7v160006EPFRS3_S4_E, symObjAddr: 0x11C, symBinAddr: 0x1000040C8, symSize: 0x2C }
  - { offsetInCU: 0xD897, offset: 0xD897, size: 0x8, addend: 0x0, symName: __Z6getBidv, symObjAddr: 0x1A0, symBinAddr: 0x10000414C, symSize: 0x1E8 }
  - { offsetInCU: 0xD8D3, offset: 0xD8D3, size: 0x8, addend: 0x0, symName: __ZN3BidC1Ev, symObjAddr: 0x388, symBinAddr: 0x100004334, symSize: 0x2C }
  - { offsetInCU: 0xD8FC, offset: 0xD8FC, size: 0x8, addend: 0x0, symName: __ZNSt3__111char_traitsIcE3eofEv, symObjAddr: 0x3B4, symBinAddr: 0x100004360, symSize: 0x8 }
  - { offsetInCU: 0xD910, offset: 0xD910, size: 0x8, addend: 0x0, symName: __ZNSt3__112basic_stringIcNS_11char_traitsIcEENS_9allocatorIcEEEC1B7v160006Ev, symObjAddr: 0x720, symBinAddr: 0x1000046CC, symSize: 0x2C }
  - { offsetInCU: 0xD938, offset: 0xD938, size: 0x8, addend: 0x0, symName: __Z11strToDoubleNSt3__112basic_stringIcNS_11char_traitsIcEENS_9allocatorIcEEEEc, symObjAddr: 0x74C, symBinAddr: 0x1000046F8, symSize: 0xB0 }
  - { offsetInCU: 0xD974, offset: 0xD974, size: 0x8, addend: 0x0, symName: __ZN3BidD1Ev, symObjAddr: 0x7FC, symBinAddr: 0x1000047A8, symSize: 0x2C }
  - { offsetInCU: 0xD99E, offset: 0xD99E, size: 0x8, addend: 0x0, symName: __Z8loadBidsNSt3__112basic_stringIcNS_11char_traitsIcEENS_9allocatorIcEEEE, symObjAddr: 0x828, symBinAddr: 0x1000047D4, symSize: 0x3A0 }
  - { offsetInCU: 0xDA23, offset: 0xDA23, size: 0x8, addend: 0x0, symName: __ZNSt3__16vectorI3BidNS_9allocatorIS1_EEEC1B7v160006Ev, symObjAddr: 0xBC8, symBinAddr: 0x100004B74, symSize: 0x2C }
  - { offsetInCU: 0xDA4B, offset: 0xDA4B, size: 0x8, addend: 0x0, symName: __ZNSt3__16vectorI3BidNS_9allocatorIS1_EEE9push_backB7v160006ERKS1_, symObjAddr: 0xBF4, symBinAddr: 0x100004BA0, symSize: 0x6C }
  - { offsetInCU: 0xDA81, offset: 0xDA81, size: 0x8, addend: 0x0, symName: __ZNSt3__16vectorI3BidNS_9allocatorIS1_EEED1B7v160006Ev, symObjAddr: 0xC6C, symBinAddr: 0x100004C18, symSize: 0x2C }
  - { offsetInCU: 0xDAA9, offset: 0xDAA9, size: 0x8, addend: 0x0, symName: __Z9partitionRNSt3__16vectorI3BidNS_9allocatorIS1_EEEEii, symObjAddr: 0xC98, symBinAddr: 0x100004C44, symSize: 0x160 }
  - { offsetInCU: 0xDB2A, offset: 0xDB2A, size: 0x8, addend: 0x0, symName: __ZNSt3__16vectorI3BidNS_9allocatorIS1_EEEixB7v160006Em, symObjAddr: 0xDF8, symBinAddr: 0x100004DA4, symSize: 0x2C }
  - { offsetInCU: 0xDB5F, offset: 0xDB5F, size: 0x8, addend: 0x0, symName: __ZNKSt3__112basic_stringIcNS_11char_traitsIcEENS_9allocatorIcEEE7compareB7v160006ERKS5_, symObjAddr: 0xE24, symBinAddr: 0x100004DD0, symSize: 0x4C }
  - { offsetInCU: 0xDB95, offset: 0xDB95, size: 0x8, addend: 0x0, symName: __Z9quickSortRNSt3__16vectorI3BidNS_9allocatorIS1_EEEEii, symObjAddr: 0xEC0, symBinAddr: 0x100004E6C, symSize: 0x80 }
  - { offsetInCU: 0xDBE8, offset: 0xDBE8, size: 0x8, addend: 0x0, symName: __Z13selectionSortRNSt3__16vectorI3BidNS_9allocatorIS1_EEEE, symObjAddr: 0xF40, symBinAddr: 0x100004EEC, symSize: 0x134 }
  - { offsetInCU: 0xDC73, offset: 0xDC73, size: 0x8, addend: 0x0, symName: __ZNKSt3__16vectorI3BidNS_9allocatorIS1_EEE4sizeB7v160006Ev, symObjAddr: 0x1074, symBinAddr: 0x100005020, symSize: 0x28 }
  - { offsetInCU: 0xDC97, offset: 0xDC97, size: 0x8, addend: 0x0, symName: __ZNSt3__112basic_stringIcNS_11char_traitsIcEENS_9allocatorIcEEE5eraseB7v160006ENS_11__wrap_iterIPKcEES9_, symObjAddr: 0x109C, symBinAddr: 0x100005048, symSize: 0x98 }
  - { offsetInCU: 0xDCFA, offset: 0xDCFA, size: 0x8, addend: 0x0, symName: __ZNSt3__112basic_stringIcNS_11char_traitsIcEENS_9allocatorIcEEE5beginB7v160006Ev, symObjAddr: 0x123C, symBinAddr: 0x1000051E8, symSize: 0x4C }
  - { offsetInCU: 0xDD1F, offset: 0xDD1F, size: 0x8, addend: 0x0, symName: __ZNSt3__112basic_stringIcNS_11char_traitsIcEENS_9allocatorIcEEE3endB7v160006Ev, symObjAddr: 0x1288, symBinAddr: 0x100005234, symSize: 0x54 }
  - { offsetInCU: 0xDD4E, offset: 0xDD4E, size: 0x8, addend: 0x0, symName: __ZNSt3__111__wrap_iterIPKcEC1B7v160006IPcEERKNS0_IT_EEPNS_9enable_ifIXsr14is_convertibleIS6_S2_EE5valueEvE4typeE, symObjAddr: 0x12DC, symBinAddr: 0x100005288, symSize: 0x3C }
  - { offsetInCU: 0xDD99, offset: 0xDD99, size: 0x8, addend: 0x0, symName: __ZNKSt3__112basic_stringIcNS_11char_traitsIcEENS_9allocatorIcEEE5c_strB7v160006Ev, symObjAddr: 0x1318, symBinAddr: 0x1000052C4, symSize: 0x24 }
  - { offsetInCU: 0xDDBE, offset: 0xDDBE, size: 0x8, addend: 0x0, symName: _main, symObjAddr: 0x133C, symBinAddr: 0x1000052E8, symSize: 0x6FC }
  - { offsetInCU: 0xDE51, offset: 0xDE51, size: 0x8, addend: 0x0, symName: __ZNSt3__112basic_stringIcNS_11char_traitsIcEENS_9allocatorIcEEEaSB7v160006EPKc, symObjAddr: 0x1A48, symBinAddr: 0x1000059F4, symSize: 0x2C }
  - { offsetInCU: 0xDE84, offset: 0xDE84, size: 0x8, addend: 0x0, symName: __ZNSt3__16vectorI3BidNS_9allocatorIS1_EEEaSB7v160006EOS4_, symObjAddr: 0x1A74, symBinAddr: 0x100005A20, symSize: 0x34 }
  - { offsetInCU: 0xDEBA, offset: 0xDEBA, size: 0x8, addend: 0x0, symName: __ZN3BidC1ERKS_, symObjAddr: 0x1AA8, symBinAddr: 0x100005A54, symSize: 0x34 }
  - { offsetInCU: 0xDEEE, offset: 0xDEEE, size: 0x8, addend: 0x0, symName: __ZN3BidC2Ev, symObjAddr: 0x1ADC, symBinAddr: 0x100005A88, symSize: 0x4C }
  - { offsetInCU: 0xDF17, offset: 0xDF17, size: 0x8, addend: 0x0, symName: __ZN3BidD2Ev, symObjAddr: 0x1B28, symBinAddr: 0x100005AD4, symSize: 0x44 }
  - { offsetInCU: 0xDF42, offset: 0xDF42, size: 0x8, addend: 0x0, symName: __ZNSt3__111__wrap_iterIPKcEC2B7v160006IPcEERKNS0_IT_EEPNS_9enable_ifIXsr14is_convertibleIS6_S2_EE5valueEvE4typeE, symObjAddr: 0x1B6C, symBinAddr: 0x100005B18, symSize: 0x40 }
  - { offsetInCU: 0xDF8D, offset: 0xDF8D, size: 0x8, addend: 0x0, symName: __ZNKSt3__111__wrap_iterIPcE4baseB7v160006Ev, symObjAddr: 0x1BAC, symBinAddr: 0x100005B58, symSize: 0x18 }
  - { offsetInCU: 0xDFB2, offset: 0xDFB2, size: 0x8, addend: 0x0, symName: __ZN3BidC2ERKS_, symObjAddr: 0x1BC4, symBinAddr: 0x100005B70, symSize: 0xB4 }
  - { offsetInCU: 0xDFE6, offset: 0xDFE6, size: 0x8, addend: 0x0, symName: __ZNSt3__112basic_stringIcNS_11char_traitsIcEENS_9allocatorIcEEEC2B7v160006Ev, symObjAddr: 0x1C78, symBinAddr: 0x100005C24, symSize: 0x54 }
  - { offsetInCU: 0xE014, offset: 0xE014, size: 0x8, addend: 0x0, symName: __ZNSt3__117__compressed_pairINS_12basic_stringIcNS_11char_traitsIcEENS_9allocatorIcEEE5__repES5_EC1B7v160006INS_18__default_init_tagESA_EEOT_OT0_, symObjAddr: 0x1CCC, symBinAddr: 0x100005C78, symSize: 0x3C }
  - { offsetInCU: 0xE06B, offset: 0xE06B, size: 0x8, addend: 0x0, symName: __ZNSt3__112basic_stringIcNS_11char_traitsIcEENS_9allocatorIcEEE14__default_initB7v160006Ev, symObjAddr: 0x1D18, symBinAddr: 0x100005CC4, symSize: 0x40 }
  - { offsetInCU: 0xE090, offset: 0xE090, size: 0x8, addend: 0x0, symName: __ZNSt3__117__compressed_pairINS_12basic_stringIcNS_11char_traitsIcEENS_9allocatorIcEEE5__repES5_EC2B7v160006INS_18__default_init_tagESA_EEOT_OT0_, symObjAddr: 0x1D58, symBinAddr: 0x100005D04, symSize: 0x3C }
  - { offsetInCU: 0xE0E7, offset: 0xE0E7, size: 0x8, addend: 0x0, symName: __ZNSt3__122__compressed_pair_elemINS_12basic_stringIcNS_11char_traitsIcEENS_9allocatorIcEEE5__repELi0ELb0EEC2B7v160006ENS_18__default_init_tagE, symObjAddr: 0x1D94, symBinAddr: 0x100005D40, symSize: 0x14 }
  - { offsetInCU: 0xE11B, offset: 0xE11B, size: 0x8, addend: 0x0, symName: __ZNSt3__122__compressed_pair_elemINS_9allocatorIcEELi1ELb1EEC2B7v160006ENS_18__default_init_tagE, symObjAddr: 0x1DA8, symBinAddr: 0x100005D54, symSize: 0x2C }
  - { offsetInCU: 0xE14F, offset: 0xE14F, size: 0x8, addend: 0x0, symName: __ZNSt3__19allocatorIcEC2B7v160006Ev, symObjAddr: 0x1DD4, symBinAddr: 0x100005D80, symSize: 0x2C }
  - { offsetInCU: 0xE178, offset: 0xE178, size: 0x8, addend: 0x0, symName: __ZNSt3__116__non_trivial_ifILb1ENS_9allocatorIcEEEC2B7v160006Ev, symObjAddr: 0x1E00, symBinAddr: 0x100005DAC, symSize: 0x14 }
  - { offsetInCU: 0xE1A1, offset: 0xE1A1, size: 0x8, addend: 0x0, symName: __ZNSt3__117__compressed_pairINS_12basic_stringIcNS_11char_traitsIcEENS_9allocatorIcEEE5__repES5_E5firstB7v160006Ev, symObjAddr: 0x1E14, symBinAddr: 0x100005DC0, symSize: 0x24 }
  - { offsetInCU: 0xE1C6, offset: 0xE1C6, size: 0x8, addend: 0x0, symName: __ZNSt3__122__compressed_pair_elemINS_12basic_stringIcNS_11char_traitsIcEENS_9allocatorIcEEE5__repELi0ELb0EE5__getB7v160006Ev, symObjAddr: 0x1E38, symBinAddr: 0x100005DE4, symSize: 0x14 }
  - { offsetInCU: 0xE1EB, offset: 0xE1EB, size: 0x8, addend: 0x0, symName: __ZNKSt3__112basic_stringIcNS_11char_traitsIcEENS_9allocatorIcEEE4dataB7v160006Ev, symObjAddr: 0x2038, symBinAddr: 0x100005FE4, symSize: 0x28 }
  - { offsetInCU: 0xE210, offset: 0xE210, size: 0x8, addend: 0x0, symName: __ZNKSt3__112basic_stringIcNS_11char_traitsIcEENS_9allocatorIcEEE4sizeB7v160006Ev, symObjAddr: 0x2060, symBinAddr: 0x10000600C, symSize: 0x54 }
  - { offsetInCU: 0xE253, offset: 0xE253, size: 0x8, addend: 0x0, symName: __ZNKSt3__113basic_ostreamIcNS_11char_traitsIcEEE6sentrycvbB7v160006Ev, symObjAddr: 0x20B4, symBinAddr: 0x100006060, symSize: 0x1C }
  - { offsetInCU: 0xE278, offset: 0xE278, size: 0x8, addend: 0x0, symName: __ZNSt3__119ostreambuf_iteratorIcNS_11char_traitsIcEEEC1B7v160006ERNS_13basic_ostreamIcS2_EE, symObjAddr: 0x2310, symBinAddr: 0x1000062BC, symSize: 0x34 }
  - { offsetInCU: 0xE2AF, offset: 0xE2AF, size: 0x8, addend: 0x0, symName: __ZNKSt3__18ios_base5flagsB7v160006Ev, symObjAddr: 0x2344, symBinAddr: 0x1000062F0, symSize: 0x18 }
  - { offsetInCU: 0xE2D5, offset: 0xE2D5, size: 0x8, addend: 0x0, symName: __ZNKSt3__19basic_iosIcNS_11char_traitsIcEEE4fillB7v160006Ev, symObjAddr: 0x235C, symBinAddr: 0x100006308, symSize: 0x64 }
  - { offsetInCU: 0xE2FC, offset: 0xE2FC, size: 0x8, addend: 0x0, symName: __ZNKSt3__119ostreambuf_iteratorIcNS_11char_traitsIcEEE6failedB7v160006Ev, symObjAddr: 0x23C0, symBinAddr: 0x10000636C, symSize: 0x24 }
  - { offsetInCU: 0xE321, offset: 0xE321, size: 0x8, addend: 0x0, symName: __ZNSt3__19basic_iosIcNS_11char_traitsIcEEE8setstateB7v160006Ej, symObjAddr: 0x23E4, symBinAddr: 0x100006390, symSize: 0x2C }
  - { offsetInCU: 0xE355, offset: 0xE355, size: 0x8, addend: 0x0, symName: __ZNKSt3__18ios_base5widthB7v160006Ev, symObjAddr: 0x2410, symBinAddr: 0x1000063BC, symSize: 0x18 }
  - { offsetInCU: 0xE37C, offset: 0xE37C, size: 0x8, addend: 0x0, symName: __ZNSt3__115basic_streambufIcNS_11char_traitsIcEEE5sputnB7v160006EPKcl, symObjAddr: 0x2428, symBinAddr: 0x1000063D4, symSize: 0x3C }
  - { offsetInCU: 0xE3BD, offset: 0xE3BD, size: 0x8, addend: 0x0, symName: __ZNSt3__112basic_stringIcNS_11char_traitsIcEENS_9allocatorIcEEEC1B7v160006Emc, symObjAddr: 0x2464, symBinAddr: 0x100006410, symSize: 0x3C }
  - { offsetInCU: 0xE404, offset: 0xE404, size: 0x8, addend: 0x0, symName: __ZNSt3__18ios_base5widthB7v160006El, symObjAddr: 0x24A0, symBinAddr: 0x10000644C, symSize: 0x2C }
  - { offsetInCU: 0xE449, offset: 0xE449, size: 0x8, addend: 0x0, symName: __ZNSt3__112basic_stringIcNS_11char_traitsIcEENS_9allocatorIcEEEC2B7v160006Emc, symObjAddr: 0x24CC, symBinAddr: 0x100006478, symSize: 0x54 }
  - { offsetInCU: 0xE490, offset: 0xE490, size: 0x8, addend: 0x0, symName: __ZNSt3__119ostreambuf_iteratorIcNS_11char_traitsIcEEEC2B7v160006ERNS_13basic_ostreamIcS2_EE, symObjAddr: 0x2520, symBinAddr: 0x1000064CC, symSize: 0x54 }
  - { offsetInCU: 0xE4C6, offset: 0xE4C6, size: 0x8, addend: 0x0, symName: __ZNKSt3__19basic_iosIcNS_11char_traitsIcEEE5rdbufB7v160006Ev, symObjAddr: 0x2574, symBinAddr: 0x100006520, symSize: 0x24 }
  - { offsetInCU: 0xE4ED, offset: 0xE4ED, size: 0x8, addend: 0x0, symName: __ZNKSt3__18ios_base5rdbufB7v160006Ev, symObjAddr: 0x2598, symBinAddr: 0x100006544, symSize: 0x18 }
  - { offsetInCU: 0xE512, offset: 0xE512, size: 0x8, addend: 0x0, symName: __ZNSt3__111char_traitsIcE11eq_int_typeEii, symObjAddr: 0x25B0, symBinAddr: 0x10000655C, symSize: 0x28 }
  - { offsetInCU: 0xE542, offset: 0xE542, size: 0x8, addend: 0x0, symName: __ZNKSt3__19basic_iosIcNS_11char_traitsIcEEE5widenB7v160006Ec, symObjAddr: 0x25D8, symBinAddr: 0x100006584, symSize: 0x84 }
  - { offsetInCU: 0xE5A5, offset: 0xE5A5, size: 0x8, addend: 0x0, symName: __ZNKSt3__15ctypeIcE5widenB7v160006Ec, symObjAddr: 0x2688, symBinAddr: 0x100006634, symSize: 0x38 }
  - { offsetInCU: 0xE5D8, offset: 0xE5D8, size: 0x8, addend: 0x0, symName: __ZNSt3__18ios_base8setstateB7v160006Ej, symObjAddr: 0x26C0, symBinAddr: 0x10000666C, symSize: 0x34 }
  - { offsetInCU: 0xE60E, offset: 0xE60E, size: 0x8, addend: 0x0, symName: __ZNKSt3__112basic_stringIcNS_11char_traitsIcEENS_9allocatorIcEEE13__get_pointerB7v160006Ev, symObjAddr: 0x2708, symBinAddr: 0x1000066B4, symSize: 0x54 }
  - { offsetInCU: 0xE633, offset: 0xE633, size: 0x8, addend: 0x0, symName: __ZNKSt3__112basic_stringIcNS_11char_traitsIcEENS_9allocatorIcEEE9__is_longB7v160006Ev, symObjAddr: 0x275C, symBinAddr: 0x100006708, symSize: 0x38 }
  - { offsetInCU: 0xE658, offset: 0xE658, size: 0x8, addend: 0x0, symName: __ZNKSt3__112basic_stringIcNS_11char_traitsIcEENS_9allocatorIcEEE18__get_long_pointerB7v160006Ev, symObjAddr: 0x2794, symBinAddr: 0x100006740, symSize: 0x28 }
  - { offsetInCU: 0xE67D, offset: 0xE67D, size: 0x8, addend: 0x0, symName: __ZNKSt3__112basic_stringIcNS_11char_traitsIcEENS_9allocatorIcEEE19__get_short_pointerB7v160006Ev, symObjAddr: 0x27BC, symBinAddr: 0x100006768, symSize: 0x28 }
  - { offsetInCU: 0xE6A2, offset: 0xE6A2, size: 0x8, addend: 0x0, symName: __ZNKSt3__117__compressed_pairINS_12basic_stringIcNS_11char_traitsIcEENS_9allocatorIcEEE5__repES5_E5firstB7v160006Ev, symObjAddr: 0x27E4, symBinAddr: 0x100006790, symSize: 0x24 }
  - { offsetInCU: 0xE6C7, offset: 0xE6C7, size: 0x8, addend: 0x0, symName: __ZNKSt3__122__compressed_pair_elemINS_12basic_stringIcNS_11char_traitsIcEENS_9allocatorIcEEE5__repELi0ELb0EE5__getB7v160006Ev, symObjAddr: 0x2808, symBinAddr: 0x1000067B4, symSize: 0x14 }
  - { offsetInCU: 0xE6EC, offset: 0xE6EC, size: 0x8, addend: 0x0, symName: __ZNSt3__114pointer_traitsIPKcE10pointer_toB7v160006ERS1_, symObjAddr: 0x281C, symBinAddr: 0x1000067C8, symSize: 0x14 }
  - { offsetInCU: 0xE70F, offset: 0xE70F, size: 0x8, addend: 0x0, symName: __ZNKSt3__112basic_stringIcNS_11char_traitsIcEENS_9allocatorIcEEE15__get_long_sizeB7v160006Ev, symObjAddr: 0x2830, symBinAddr: 0x1000067DC, symSize: 0x28 }
  - { offsetInCU: 0xE734, offset: 0xE734, size: 0x8, addend: 0x0, symName: __ZNKSt3__112basic_stringIcNS_11char_traitsIcEENS_9allocatorIcEEE16__get_short_sizeB7v160006Ev, symObjAddr: 0x2858, symBinAddr: 0x100006804, symSize: 0x34 }
  - { offsetInCU: 0xE759, offset: 0xE759, size: 0x8, addend: 0x0, symName: __ZNSt3__111char_traitsIcE6lengthEPKc, symObjAddr: 0x288C, symBinAddr: 0x100006838, symSize: 0x34 }
  - { offsetInCU: 0xE80E, offset: 0xE80E, size: 0x8, addend: 0x0, symName: __ZNKSt3__113basic_istreamIcNS_11char_traitsIcEEE6sentrycvbB7v160006Ev, symObjAddr: 0x2B1C, symBinAddr: 0x100006AC8, symSize: 0x1C }
  - { offsetInCU: 0xE832, offset: 0xE832, size: 0x8, addend: 0x0, symName: __ZNSt3__112basic_stringIcNS_11char_traitsIcEENS_9allocatorIcEEE5clearB7v160006Ev, symObjAddr: 0x2B38, symBinAddr: 0x100006AE4, symSize: 0x88 }
  - { offsetInCU: 0xE859, offset: 0xE859, size: 0x8, addend: 0x0, symName: __ZNSt3__115basic_streambufIcNS_11char_traitsIcEEE6sbumpcB7v160006Ev, symObjAddr: 0x2BC0, symBinAddr: 0x100006B6C, symSize: 0x78 }
  - { offsetInCU: 0xE87E, offset: 0xE87E, size: 0x8, addend: 0x0, symName: __ZNSt3__111char_traitsIcE12to_char_typeEi, symObjAddr: 0x2C38, symBinAddr: 0x100006BE4, symSize: 0x18 }
  - { offsetInCU: 0xE8A1, offset: 0xE8A1, size: 0x8, addend: 0x0, symName: __ZNSt3__111char_traitsIcE2eqEcc, symObjAddr: 0x2C50, symBinAddr: 0x100006BFC, symSize: 0x28 }
  - { offsetInCU: 0xE8D2, offset: 0xE8D2, size: 0x8, addend: 0x0, symName: __ZNKSt3__112basic_stringIcNS_11char_traitsIcEENS_9allocatorIcEEE8max_sizeB7v160006Ev, symObjAddr: 0x2C78, symBinAddr: 0x100006C24, symSize: 0xAC }
  - { offsetInCU: 0xE923, offset: 0xE923, size: 0x8, addend: 0x0, symName: __ZNSt3__18ios_base18__setstate_nothrowB7v160006Ej, symObjAddr: 0x2D24, symBinAddr: 0x100006CD0, symSize: 0x64 }
  - { offsetInCU: 0xE957, offset: 0xE957, size: 0x8, addend: 0x0, symName: __ZNKSt3__19basic_iosIcNS_11char_traitsIcEEE10exceptionsB7v160006Ev, symObjAddr: 0x2D88, symBinAddr: 0x100006D34, symSize: 0x24 }
  - { offsetInCU: 0xE97C, offset: 0xE97C, size: 0x8, addend: 0x0, symName: __ZNSt3__111char_traitsIcE6assignERcRKc, symObjAddr: 0x2DBC, symBinAddr: 0x100006D68, symSize: 0x24 }
  - { offsetInCU: 0xE9AD, offset: 0xE9AD, size: 0x8, addend: 0x0, symName: __ZNSt3__112basic_stringIcNS_11char_traitsIcEENS_9allocatorIcEEE18__get_long_pointerB7v160006Ev, symObjAddr: 0x2DE0, symBinAddr: 0x100006D8C, symSize: 0x28 }
  - { offsetInCU: 0xE9D2, offset: 0xE9D2, size: 0x8, addend: 0x0, symName: __ZNSt3__112basic_stringIcNS_11char_traitsIcEENS_9allocatorIcEEE15__set_long_sizeB7v160006Em, symObjAddr: 0x2E08, symBinAddr: 0x100006DB4, symSize: 0x38 }
  - { offsetInCU: 0xEA06, offset: 0xEA06, size: 0x8, addend: 0x0, symName: __ZNSt3__112basic_stringIcNS_11char_traitsIcEENS_9allocatorIcEEE19__get_short_pointerB7v160006Ev, symObjAddr: 0x2E40, symBinAddr: 0x100006DEC, symSize: 0x28 }
  - { offsetInCU: 0xEA2B, offset: 0xEA2B, size: 0x8, addend: 0x0, symName: __ZNSt3__112basic_stringIcNS_11char_traitsIcEENS_9allocatorIcEEE16__set_short_sizeB7v160006Em, symObjAddr: 0x2E68, symBinAddr: 0x100006E14, symSize: 0x78 }
  - { offsetInCU: 0xEA5F, offset: 0xEA5F, size: 0x8, addend: 0x0, symName: __ZNSt3__114pointer_traitsIPcE10pointer_toB7v160006ERc, symObjAddr: 0x2EE0, symBinAddr: 0x100006E8C, symSize: 0x14 }
  - { offsetInCU: 0xEA82, offset: 0xEA82, size: 0x8, addend: 0x0, symName: __ZNSt3__111char_traitsIcE11to_int_typeEc, symObjAddr: 0x2EF4, symBinAddr: 0x100006EA0, symSize: 0x14 }
  - { offsetInCU: 0xEAAF, offset: 0xEAAF, size: 0x8, addend: 0x0, symName: __ZNSt3__116allocator_traitsINS_9allocatorIcEEE8max_sizeB7v160006IS2_vEEmRKS2_, symObjAddr: 0x2F08, symBinAddr: 0x100006EB4, symSize: 0x24 }
  - { offsetInCU: 0xEADD, offset: 0xEADD, size: 0x8, addend: 0x0, symName: __ZNKSt3__112basic_stringIcNS_11char_traitsIcEENS_9allocatorIcEEE7__allocB7v160006Ev, symObjAddr: 0x2F2C, symBinAddr: 0x100006ED8, symSize: 0x24 }
  - { offsetInCU: 0xEB02, offset: 0xEB02, size: 0x8, addend: 0x0, symName: __ZNSt3__114numeric_limitsImE3maxB7v160006Ev, symObjAddr: 0x2F50, symBinAddr: 0x100006EFC, symSize: 0x14 }
  - { offsetInCU: 0xEB16, offset: 0xEB16, size: 0x8, addend: 0x0, symName: __ZNKSt3__19allocatorIcE8max_sizeB7v160006Ev, symObjAddr: 0x2F64, symBinAddr: 0x100006F10, symSize: 0x14 }
  - { offsetInCU: 0xEB3B, offset: 0xEB3B, size: 0x8, addend: 0x0, symName: __ZNKSt3__117__compressed_pairINS_12basic_stringIcNS_11char_traitsIcEENS_9allocatorIcEEE5__repES5_E6secondB7v160006Ev, symObjAddr: 0x2F78, symBinAddr: 0x100006F24, symSize: 0x24 }
  - { offsetInCU: 0xEB60, offset: 0xEB60, size: 0x8, addend: 0x0, symName: __ZNKSt3__122__compressed_pair_elemINS_9allocatorIcEELi1ELb1EE5__getB7v160006Ev, symObjAddr: 0x2F9C, symBinAddr: 0x100006F48, symSize: 0x14 }
  - { offsetInCU: 0xEB85, offset: 0xEB85, size: 0x8, addend: 0x0, symName: __ZNSt3__123__libcpp_numeric_limitsImLb1EE3maxB7v160006Ev, symObjAddr: 0x2FB0, symBinAddr: 0x100006F5C, symSize: 0x8 }
  - { offsetInCU: 0xEB99, offset: 0xEB99, size: 0x8, addend: 0x0, symName: __ZNKSt3__18ios_base10exceptionsB7v160006Ev, symObjAddr: 0x2FB8, symBinAddr: 0x100006F64, symSize: 0x18 }
  - { offsetInCU: 0xEBC0, offset: 0xEBC0, size: 0x8, addend: 0x0, symName: __ZNSt3__114numeric_limitsIlE3maxB7v160006Ev, symObjAddr: 0x2FD0, symBinAddr: 0x100006F7C, symSize: 0x14 }
  - { offsetInCU: 0xEBD4, offset: 0xEBD4, size: 0x8, addend: 0x0, symName: __ZNSt3__115basic_streambufIcNS_11char_traitsIcEEE5sgetcB7v160006Ev, symObjAddr: 0x2FE4, symBinAddr: 0x100006F90, symSize: 0x70 }
  - { offsetInCU: 0xEBF9, offset: 0xEBF9, size: 0x8, addend: 0x0, symName: __ZNKSt3__15ctypeIcE2isB7v160006Ejc, symObjAddr: 0x3054, symBinAddr: 0x100007000, symSize: 0x7C }
  - { offsetInCU: 0xEC3C, offset: 0xEC3C, size: 0x8, addend: 0x0, symName: __ZNSt3__123__libcpp_numeric_limitsIlLb1EE3maxB7v160006Ev, symObjAddr: 0x30D0, symBinAddr: 0x10000707C, symSize: 0x8 }
  - { offsetInCU: 0xEC4F, offset: 0xEC4F, size: 0x8, addend: 0x0, symName: __Z7isasciii, symObjAddr: 0x30D8, symBinAddr: 0x100007084, symSize: 0x24 }
  - { offsetInCU: 0xEC7C, offset: 0xEC7C, size: 0x8, addend: 0x0, symName: __ZNSt3__16vectorI3BidNS_9allocatorIS1_EEEC2B7v160006Ev, symObjAddr: 0x30FC, symBinAddr: 0x1000070A8, symSize: 0x58 }
  - { offsetInCU: 0xECAA, offset: 0xECAA, size: 0x8, addend: 0x0, symName: __ZNSt3__117__compressed_pairIP3BidNS_9allocatorIS1_EEEC1B7v160006IDnNS_18__default_init_tagEEEOT_OT0_, symObjAddr: 0x3154, symBinAddr: 0x100007100, symSize: 0x3C }
  - { offsetInCU: 0xED01, offset: 0xED01, size: 0x8, addend: 0x0, symName: __ZNSt3__117__compressed_pairIP3BidNS_9allocatorIS1_EEEC2B7v160006IDnNS_18__default_init_tagEEEOT_OT0_, symObjAddr: 0x31A0, symBinAddr: 0x10000714C, symSize: 0x40 }
  - { offsetInCU: 0xED58, offset: 0xED58, size: 0x8, addend: 0x0, symName: __ZNSt3__122__compressed_pair_elemIP3BidLi0ELb0EEC2B7v160006IDnvEEOT_, symObjAddr: 0x31E0, symBinAddr: 0x10000718C, symSize: 0x1C }
  - { offsetInCU: 0xED99, offset: 0xED99, size: 0x8, addend: 0x0, symName: __ZNSt3__122__compressed_pair_elemINS_9allocatorI3BidEELi1ELb1EEC2B7v160006ENS_18__default_init_tagE, symObjAddr: 0x31FC, symBinAddr: 0x1000071A8, symSize: 0x2C }
  - { offsetInCU: 0xEDCD, offset: 0xEDCD, size: 0x8, addend: 0x0, symName: __ZNSt3__19allocatorI3BidEC2B7v160006Ev, symObjAddr: 0x3228, symBinAddr: 0x1000071D4, symSize: 0x2C }
  - { offsetInCU: 0xEDF6, offset: 0xEDF6, size: 0x8, addend: 0x0, symName: __ZNSt3__116__non_trivial_ifILb1ENS_9allocatorI3BidEEEC2B7v160006Ev, symObjAddr: 0x3254, symBinAddr: 0x100007200, symSize: 0x14 }
  - { offsetInCU: 0xEE1F, offset: 0xEE1F, size: 0x8, addend: 0x0, symName: __ZNSt3__16vectorI3BidNS_9allocatorIS1_EEED2B7v160006Ev, symObjAddr: 0x3268, symBinAddr: 0x100007214, symSize: 0x44 }
  - { offsetInCU: 0xEE48, offset: 0xEE48, size: 0x8, addend: 0x0, symName: __ZNSt3__16vectorI3BidNS_9allocatorIS1_EEE16__destroy_vectorC1ERS4_, symObjAddr: 0x32AC, symBinAddr: 0x100007258, symSize: 0x34 }
  - { offsetInCU: 0xEE80, offset: 0xEE80, size: 0x8, addend: 0x0, symName: __ZNSt3__16vectorI3BidNS_9allocatorIS1_EEE16__destroy_vectorclB7v160006Ev, symObjAddr: 0x32E0, symBinAddr: 0x10000728C, symSize: 0x9C }
  - { offsetInCU: 0xEEA5, offset: 0xEEA5, size: 0x8, addend: 0x0, symName: __ZNSt3__16vectorI3BidNS_9allocatorIS1_EEE16__destroy_vectorC2ERS4_, symObjAddr: 0x337C, symBinAddr: 0x100007328, symSize: 0x20 }
  - { offsetInCU: 0xEEDD, offset: 0xEEDD, size: 0x8, addend: 0x0, symName: __ZNKSt3__16vectorI3BidNS_9allocatorIS1_EEE17__annotate_deleteB7v160006Ev, symObjAddr: 0x339C, symBinAddr: 0x100007348, symSize: 0xD4 }
  - { offsetInCU: 0xEF02, offset: 0xEF02, size: 0x8, addend: 0x0, symName: __ZNSt3__16vectorI3BidNS_9allocatorIS1_EEE7__clearB7v160006Ev, symObjAddr: 0x3480, symBinAddr: 0x10000742C, symSize: 0x28 }
  - { offsetInCU: 0xEF27, offset: 0xEF27, size: 0x8, addend: 0x0, symName: __ZNSt3__116allocator_traitsINS_9allocatorI3BidEEE10deallocateB7v160006ERS3_PS2_m, symObjAddr: 0x34A8, symBinAddr: 0x100007454, symSize: 0x34 }
  - { offsetInCU: 0xEF69, offset: 0xEF69, size: 0x8, addend: 0x0, symName: __ZNSt3__16vectorI3BidNS_9allocatorIS1_EEE7__allocB7v160006Ev, symObjAddr: 0x34DC, symBinAddr: 0x100007488, symSize: 0x28 }
  - { offsetInCU: 0xEF8E, offset: 0xEF8E, size: 0x8, addend: 0x0, symName: __ZNKSt3__16vectorI3BidNS_9allocatorIS1_EEE8capacityB7v160006Ev, symObjAddr: 0x3504, symBinAddr: 0x1000074B0, symSize: 0x40 }
  - { offsetInCU: 0xEFB3, offset: 0xEFB3, size: 0x8, addend: 0x0, symName: __ZNKSt3__16vectorI3BidNS_9allocatorIS1_EEE31__annotate_contiguous_containerB7v160006EPKvS6_S6_S6_, symObjAddr: 0x3544, symBinAddr: 0x1000074F0, symSize: 0x20 }
  - { offsetInCU: 0xF008, offset: 0xF008, size: 0x8, addend: 0x0, symName: __ZNKSt3__16vectorI3BidNS_9allocatorIS1_EEE4dataB7v160006Ev, symObjAddr: 0x3564, symBinAddr: 0x100007510, symSize: 0x28 }
  - { offsetInCU: 0xF02D, offset: 0xF02D, size: 0x8, addend: 0x0, symName: __ZNSt3__16vectorI3BidNS_9allocatorIS1_EEE22__base_destruct_at_endB7v160006EPS1_, symObjAddr: 0x35A0, symBinAddr: 0x10000754C, symSize: 0x8C }
  - { offsetInCU: 0xF070, offset: 0xF070, size: 0x8, addend: 0x0, symName: __ZNSt3__116allocator_traitsINS_9allocatorI3BidEEE7destroyB7v160006IS2_vEEvRS3_PT_, symObjAddr: 0x362C, symBinAddr: 0x1000075D8, symSize: 0x2C }
  - { offsetInCU: 0xF0AD, offset: 0xF0AD, size: 0x8, addend: 0x0, symName: __ZNSt3__19allocatorI3BidE7destroyB7v160006EPS1_, symObjAddr: 0x3658, symBinAddr: 0x100007604, symSize: 0x28 }
  - { offsetInCU: 0xF0E0, offset: 0xF0E0, size: 0x8, addend: 0x0, symName: __ZNSt3__19allocatorI3BidE10deallocateB7v160006EPS1_m, symObjAddr: 0x3680, symBinAddr: 0x10000762C, symSize: 0x44 }
  - { offsetInCU: 0xF121, offset: 0xF121, size: 0x8, addend: 0x0, symName: __ZNSt3__117__compressed_pairIP3BidNS_9allocatorIS1_EEE6secondB7v160006Ev, symObjAddr: 0x3740, symBinAddr: 0x1000076EC, symSize: 0x24 }
  - { offsetInCU: 0xF146, offset: 0xF146, size: 0x8, addend: 0x0, symName: __ZNSt3__122__compressed_pair_elemINS_9allocatorI3BidEELi1ELb1EE5__getB7v160006Ev, symObjAddr: 0x3764, symBinAddr: 0x100007710, symSize: 0x14 }
  - { offsetInCU: 0xF16B, offset: 0xF16B, size: 0x8, addend: 0x0, symName: __ZNKSt3__16vectorI3BidNS_9allocatorIS1_EEE9__end_capB7v160006Ev, symObjAddr: 0x3778, symBinAddr: 0x100007724, symSize: 0x28 }
  - { offsetInCU: 0xF190, offset: 0xF190, size: 0x8, addend: 0x0, symName: __ZNKSt3__117__compressed_pairIP3BidNS_9allocatorIS1_EEE5firstB7v160006Ev, symObjAddr: 0x37A0, symBinAddr: 0x10000774C, symSize: 0x24 }
  - { offsetInCU: 0xF1B5, offset: 0xF1B5, size: 0x8, addend: 0x0, symName: __ZNKSt3__122__compressed_pair_elemIP3BidLi0ELb0EE5__getB7v160006Ev, symObjAddr: 0x37C4, symBinAddr: 0x100007770, symSize: 0x14 }
  - { offsetInCU: 0xF1DA, offset: 0xF1DA, size: 0x8, addend: 0x0, symName: __ZNSt3__16vectorI3BidNS_9allocatorIS1_EEE9__end_capB7v160006Ev, symObjAddr: 0x37D8, symBinAddr: 0x100007784, symSize: 0x28 }
  - { offsetInCU: 0xF1FF, offset: 0xF1FF, size: 0x8, addend: 0x0, symName: __ZNSt3__16vectorI3BidNS_9allocatorIS1_EEE22__construct_one_at_endB7v160006IJRKS1_EEEvDpOT_, symObjAddr: 0x3800, symBinAddr: 0x1000077AC, symSize: 0x90 }
  - { offsetInCU: 0xF24C, offset: 0xF24C, size: 0x8, addend: 0x0, symName: __ZNSt3__16vectorI3BidNS_9allocatorIS1_EEE21__push_back_slow_pathIRKS1_EEvOT_, symObjAddr: 0x3890, symBinAddr: 0x10000783C, symSize: 0xD8 }
  - { offsetInCU: 0xF2A9, offset: 0xF2A9, size: 0x8, addend: 0x0, symName: __ZNSt3__117__compressed_pairIP3BidNS_9allocatorIS1_EEE5firstB7v160006Ev, symObjAddr: 0x3968, symBinAddr: 0x100007914, symSize: 0x24 }
  - { offsetInCU: 0xF2CE, offset: 0xF2CE, size: 0x8, addend: 0x0, symName: __ZNSt3__122__compressed_pair_elemIP3BidLi0ELb0EE5__getB7v160006Ev, symObjAddr: 0x398C, symBinAddr: 0x100007938, symSize: 0x14 }
  - { offsetInCU: 0xF30C, offset: 0xF30C, size: 0x8, addend: 0x0, symName: __ZNSt3__16vectorI3BidNS_9allocatorIS1_EEE21_ConstructTransactionC1B7v160006ERS4_m, symObjAddr: 0x39A0, symBinAddr: 0x10000794C, symSize: 0x3C }
  - { offsetInCU: 0xF353, offset: 0xF353, size: 0x8, addend: 0x0, symName: __ZNSt3__116allocator_traitsINS_9allocatorI3BidEEE9constructB7v160006IS2_JRKS2_EvEEvRS3_PT_DpOT0_, symObjAddr: 0x39DC, symBinAddr: 0x100007988, symSize: 0x34 }
  - { offsetInCU: 0xF3AA, offset: 0xF3AA, size: 0x8, addend: 0x0, symName: __ZNSt3__16vectorI3BidNS_9allocatorIS1_EEE21_ConstructTransactionD1B7v160006Ev, symObjAddr: 0x3A10, symBinAddr: 0x1000079BC, symSize: 0x2C }
  - { offsetInCU: 0xF3D3, offset: 0xF3D3, size: 0x8, addend: 0x0, symName: __ZNSt3__16vectorI3BidNS_9allocatorIS1_EEE21_ConstructTransactionC2B7v160006ERS4_m, symObjAddr: 0x3A3C, symBinAddr: 0x1000079E8, symSize: 0x4C }
  - { offsetInCU: 0xF41A, offset: 0xF41A, size: 0x8, addend: 0x0, symName: __ZNSt3__19allocatorI3BidE9constructB7v160006IS1_JRKS1_EEEvPT_DpOT0_, symObjAddr: 0x3A88, symBinAddr: 0x100007A34, symSize: 0x30 }
  - { offsetInCU: 0xF46F, offset: 0xF46F, size: 0x8, addend: 0x0, symName: __ZNSt3__16vectorI3BidNS_9allocatorIS1_EEE21_ConstructTransactionD2B7v160006Ev, symObjAddr: 0x3AB8, symBinAddr: 0x100007A64, symSize: 0x20 }
  - { offsetInCU: 0xF497, offset: 0xF497, size: 0x8, addend: 0x0, symName: __ZNKSt3__16vectorI3BidNS_9allocatorIS1_EEE11__recommendB7v160006Em, symObjAddr: 0x3AD8, symBinAddr: 0x100007A84, symSize: 0xB4 }
  - { offsetInCU: 0xF4EB, offset: 0xF4EB, size: 0x8, addend: 0x0, symName: __ZNSt3__114__split_bufferI3BidRNS_9allocatorIS1_EEEC1EmmS4_, symObjAddr: 0x3B8C, symBinAddr: 0x100007B38, symSize: 0x44 }
  - { offsetInCU: 0xF540, offset: 0xF540, size: 0x8, addend: 0x0, symName: __ZNSt3__114__split_bufferI3BidRNS_9allocatorIS1_EEED1Ev, symObjAddr: 0x3CE8, symBinAddr: 0x100007C94, symSize: 0x2C }
  - { offsetInCU: 0xF56A, offset: 0xF56A, size: 0x8, addend: 0x0, symName: __ZNKSt3__16vectorI3BidNS_9allocatorIS1_EEE8max_sizeEv, symObjAddr: 0x3D14, symBinAddr: 0x100007CC0, symSize: 0x60 }
  - { offsetInCU: 0xF591, offset: 0xF591, size: 0x8, addend: 0x0, symName: __ZNKSt3__16vectorI3BidNS_9allocatorIS1_EEE20__throw_length_errorB7v160006Ev, symObjAddr: 0x3D74, symBinAddr: 0x100007D20, symSize: 0x1C }
  - { offsetInCU: 0xF5C0, offset: 0xF5C0, size: 0x8, addend: 0x0, symName: __ZNSt3__116allocator_traitsINS_9allocatorI3BidEEE8max_sizeB7v160006IS3_vEEmRKS3_, symObjAddr: 0x3DE8, symBinAddr: 0x100007D94, symSize: 0x24 }
  - { offsetInCU: 0xF5EE, offset: 0xF5EE, size: 0x8, addend: 0x0, symName: __ZNKSt3__16vectorI3BidNS_9allocatorIS1_EEE7__allocB7v160006Ev, symObjAddr: 0x3E0C, symBinAddr: 0x100007DB8, symSize: 0x28 }
  - { offsetInCU: 0xF627, offset: 0xF627, size: 0x8, addend: 0x0, symName: __ZNKSt3__16__lessImmEclB7v160006ERKmS3_, symObjAddr: 0x3E88, symBinAddr: 0x100007E34, symSize: 0x34 }
  - { offsetInCU: 0xF668, offset: 0xF668, size: 0x8, addend: 0x0, symName: __ZNKSt3__19allocatorI3BidE8max_sizeB7v160006Ev, symObjAddr: 0x3EBC, symBinAddr: 0x100007E68, symSize: 0x18 }
  - { offsetInCU: 0xF68D, offset: 0xF68D, size: 0x8, addend: 0x0, symName: __ZNKSt3__117__compressed_pairIP3BidNS_9allocatorIS1_EEE6secondB7v160006Ev, symObjAddr: 0x3ED4, symBinAddr: 0x100007E80, symSize: 0x24 }
  - { offsetInCU: 0xF6B2, offset: 0xF6B2, size: 0x8, addend: 0x0, symName: __ZNKSt3__122__compressed_pair_elemINS_9allocatorI3BidEELi1ELb1EE5__getB7v160006Ev, symObjAddr: 0x3EF8, symBinAddr: 0x100007EA4, symSize: 0x14 }
  - { offsetInCU: 0xF6D7, offset: 0xF6D7, size: 0x8, addend: 0x0, symName: __ZNSt12length_errorC1B7v160006EPKc, symObjAddr: 0x3F70, symBinAddr: 0x100007F1C, symSize: 0x34 }
  - { offsetInCU: 0xF70E, offset: 0xF70E, size: 0x8, addend: 0x0, symName: __ZNSt12length_errorC2B7v160006EPKc, symObjAddr: 0x3FA4, symBinAddr: 0x100007F50, symSize: 0x4C }
  - { offsetInCU: 0xF745, offset: 0xF745, size: 0x8, addend: 0x0, symName: __ZNSt3__114__split_bufferI3BidRNS_9allocatorIS1_EEEC2EmmS4_, symObjAddr: 0x4044, symBinAddr: 0x100007FF0, symSize: 0xE0 }
  - { offsetInCU: 0xF7B7, offset: 0xF7B7, size: 0x8, addend: 0x0, symName: __ZNSt3__117__compressed_pairIP3BidRNS_9allocatorIS1_EEEC1B7v160006IDnS5_EEOT_OT0_, symObjAddr: 0x4124, symBinAddr: 0x1000080D0, symSize: 0x3C }
  - { offsetInCU: 0xF80E, offset: 0xF80E, size: 0x8, addend: 0x0, symName: __ZNSt3__114__split_bufferI3BidRNS_9allocatorIS1_EEE7__allocB7v160006Ev, symObjAddr: 0x41A0, symBinAddr: 0x10000814C, symSize: 0x28 }
  - { offsetInCU: 0xF833, offset: 0xF833, size: 0x8, addend: 0x0, symName: __ZNSt3__114__split_bufferI3BidRNS_9allocatorIS1_EEE9__end_capB7v160006Ev, symObjAddr: 0x41C8, symBinAddr: 0x100008174, symSize: 0x28 }
  - { offsetInCU: 0xF858, offset: 0xF858, size: 0x8, addend: 0x0, symName: __ZNSt3__117__compressed_pairIP3BidRNS_9allocatorIS1_EEEC2B7v160006IDnS5_EEOT_OT0_, symObjAddr: 0x41F0, symBinAddr: 0x10000819C, symSize: 0x48 }
  - { offsetInCU: 0xF8AF, offset: 0xF8AF, size: 0x8, addend: 0x0, symName: __ZNSt3__122__compressed_pair_elemIRNS_9allocatorI3BidEELi1ELb0EEC2B7v160006IS4_vEEOT_, symObjAddr: 0x4238, symBinAddr: 0x1000081E4, symSize: 0x20 }
  - { offsetInCU: 0xF8F0, offset: 0xF8F0, size: 0x8, addend: 0x0, symName: __ZNSt3__19allocatorI3BidE8allocateB7v160006Em, symObjAddr: 0x4258, symBinAddr: 0x100008204, symSize: 0x5C }
  - { offsetInCU: 0xF923, offset: 0xF923, size: 0x8, addend: 0x0, symName: __ZNSt3__117__compressed_pairIP3BidRNS_9allocatorIS1_EEE6secondB7v160006Ev, symObjAddr: 0x4334, symBinAddr: 0x1000082E0, symSize: 0x28 }
  - { offsetInCU: 0xF948, offset: 0xF948, size: 0x8, addend: 0x0, symName: __ZNSt3__122__compressed_pair_elemIRNS_9allocatorI3BidEELi1ELb0EE5__getB7v160006Ev, symObjAddr: 0x435C, symBinAddr: 0x100008308, symSize: 0x18 }
  - { offsetInCU: 0xF96D, offset: 0xF96D, size: 0x8, addend: 0x0, symName: __ZNSt3__117__compressed_pairIP3BidRNS_9allocatorIS1_EEE5firstB7v160006Ev, symObjAddr: 0x4374, symBinAddr: 0x100008320, symSize: 0x24 }
  - { offsetInCU: 0xF992, offset: 0xF992, size: 0x8, addend: 0x0, symName: __ZNSt3__116reverse_iteratorIP3BidEC1B7v160006ES2_, symObjAddr: 0x44C4, symBinAddr: 0x100008470, symSize: 0x34 }
  - { offsetInCU: 0xF9C9, offset: 0xF9C9, size: 0x8, addend: 0x0, symName: __ZNKSt3__116reverse_iteratorIP3BidE4baseB7v160006Ev, symObjAddr: 0x44F8, symBinAddr: 0x1000084A4, symSize: 0x18 }
  - { offsetInCU: 0xF9EE, offset: 0xF9EE, size: 0x8, addend: 0x0, symName: __ZNKSt3__16vectorI3BidNS_9allocatorIS1_EEE14__annotate_newB7v160006Em, symObjAddr: 0x454C, symBinAddr: 0x1000084F8, symSize: 0xC8 }
  - { offsetInCU: 0xFA22, offset: 0xFA22, size: 0x8, addend: 0x0, symName: __ZNSt3__129_AllocatorDestroyRangeReverseINS_9allocatorI3BidEENS_16reverse_iteratorIPS2_EEEC1B7v160006ERS3_RS6_S9_, symObjAddr: 0x4670, symBinAddr: 0x10000861C, symSize: 0x44 }
  - { offsetInCU: 0xFA7D, offset: 0xFA7D, size: 0x8, addend: 0x0, symName: __ZNSt3__116allocator_traitsINS_9allocatorI3BidEEE9constructB7v160006IS2_JS2_EvEEvRS3_PT_DpOT0_, symObjAddr: 0x46FC, symBinAddr: 0x1000086A8, symSize: 0x34 }
  - { offsetInCU: 0xFAD4, offset: 0xFAD4, size: 0x8, addend: 0x0, symName: __ZNKSt3__116reverse_iteratorIP3BidEdeB7v160006Ev, symObjAddr: 0x4754, symBinAddr: 0x100008700, symSize: 0x28 }
  - { offsetInCU: 0xFB07, offset: 0xFB07, size: 0x8, addend: 0x0, symName: __ZNSt3__116reverse_iteratorIP3BidEppB7v160006Ev, symObjAddr: 0x477C, symBinAddr: 0x100008728, symSize: 0x20 }
  - { offsetInCU: 0xFB2C, offset: 0xFB2C, size: 0x8, addend: 0x0, symName: __ZNSt3__128__exception_guard_exceptionsINS_29_AllocatorDestroyRangeReverseINS_9allocatorI3BidEENS_16reverse_iteratorIPS3_EEEEE10__completeB7v160006Ev, symObjAddr: 0x479C, symBinAddr: 0x100008748, symSize: 0x1C }
  - { offsetInCU: 0xFB51, offset: 0xFB51, size: 0x8, addend: 0x0, symName: __ZNSt3__128__exception_guard_exceptionsINS_29_AllocatorDestroyRangeReverseINS_9allocatorI3BidEENS_16reverse_iteratorIPS3_EEEEED1B7v160006Ev, symObjAddr: 0x47B8, symBinAddr: 0x100008764, symSize: 0x2C }
  - { offsetInCU: 0xFB7A, offset: 0xFB7A, size: 0x8, addend: 0x0, symName: __ZNSt3__128__exception_guard_exceptionsINS_29_AllocatorDestroyRangeReverseINS_9allocatorI3BidEENS_16reverse_iteratorIPS3_EEEEEC1B7v160006ES8_, symObjAddr: 0x47E4, symBinAddr: 0x100008790, symSize: 0x34 }
  - { offsetInCU: 0xFBB2, offset: 0xFBB2, size: 0x8, addend: 0x0, symName: __ZNSt3__128__exception_guard_exceptionsINS_29_AllocatorDestroyRangeReverseINS_9allocatorI3BidEENS_16reverse_iteratorIPS3_EEEEEC2B7v160006ES8_, symObjAddr: 0x4818, symBinAddr: 0x1000087C4, symSize: 0x30 }
  - { offsetInCU: 0xFBEA, offset: 0xFBEA, size: 0x8, addend: 0x0, symName: __ZNSt3__129_AllocatorDestroyRangeReverseINS_9allocatorI3BidEENS_16reverse_iteratorIPS2_EEEC2B7v160006ERS3_RS6_S9_, symObjAddr: 0x4848, symBinAddr: 0x1000087F4, symSize: 0x38 }
  - { offsetInCU: 0xFC40, offset: 0xFC40, size: 0x8, addend: 0x0, symName: __ZNSt3__19allocatorI3BidE9constructB7v160006IS1_JS1_EEEvPT_DpOT0_, symObjAddr: 0x4880, symBinAddr: 0x10000882C, symSize: 0x30 }
  - { offsetInCU: 0xFC95, offset: 0xFC95, size: 0x8, addend: 0x0, symName: __ZN3BidC1EOS_, symObjAddr: 0x48B0, symBinAddr: 0x10000885C, symSize: 0x34 }
  - { offsetInCU: 0xFCC9, offset: 0xFCC9, size: 0x8, addend: 0x0, symName: __ZN3BidC2EOS_, symObjAddr: 0x48E4, symBinAddr: 0x100008890, symSize: 0x68 }
  - { offsetInCU: 0xFCFD, offset: 0xFCFD, size: 0x8, addend: 0x0, symName: __ZNSt3__112basic_stringIcNS_11char_traitsIcEENS_9allocatorIcEEEC1B7v160006EOS5_, symObjAddr: 0x494C, symBinAddr: 0x1000088F8, symSize: 0x34 }
  - { offsetInCU: 0xFD35, offset: 0xFD35, size: 0x8, addend: 0x0, symName: __ZNSt3__112basic_stringIcNS_11char_traitsIcEENS_9allocatorIcEEEC2B7v160006EOS5_, symObjAddr: 0x4980, symBinAddr: 0x10000892C, symSize: 0x80 }
  - { offsetInCU: 0xFD72, offset: 0xFD72, size: 0x8, addend: 0x0, symName: __ZNSt3__119__to_address_helperINS_16reverse_iteratorIP3BidEEvE6__callB7v160006ERKS4_, symObjAddr: 0x4A14, symBinAddr: 0x1000089C0, symSize: 0x38 }
  - { offsetInCU: 0xFD95, offset: 0xFD95, size: 0x8, addend: 0x0, symName: __ZNKSt3__116reverse_iteratorIP3BidEptB7v160006Ev, symObjAddr: 0x4A4C, symBinAddr: 0x1000089F8, symSize: 0x24 }
  - { offsetInCU: 0xFDBA, offset: 0xFDBA, size: 0x8, addend: 0x0, symName: __ZNSt3__128__exception_guard_exceptionsINS_29_AllocatorDestroyRangeReverseINS_9allocatorI3BidEENS_16reverse_iteratorIPS3_EEEEED2B7v160006Ev, symObjAddr: 0x4A70, symBinAddr: 0x100008A1C, symSize: 0x50 }
  - { offsetInCU: 0xFDE3, offset: 0xFDE3, size: 0x8, addend: 0x0, symName: __ZNKSt3__129_AllocatorDestroyRangeReverseINS_9allocatorI3BidEENS_16reverse_iteratorIPS2_EEEclB7v160006Ev, symObjAddr: 0x4AC0, symBinAddr: 0x100008A6C, symSize: 0xB4 }
  - { offsetInCU: 0xFE09, offset: 0xFE09, size: 0x8, addend: 0x0, symName: __ZNSt3__116reverse_iteratorINS0_IP3BidEEEC1B7v160006ES3_, symObjAddr: 0x4BE4, symBinAddr: 0x100008B90, symSize: 0x3C }
  - { offsetInCU: 0xFE40, offset: 0xFE40, size: 0x8, addend: 0x0, symName: __ZNSt3__116reverse_iteratorINS0_IP3BidEEEppB7v160006Ev, symObjAddr: 0x4CA4, symBinAddr: 0x100008C50, symSize: 0x30 }
  - { offsetInCU: 0xFE65, offset: 0xFE65, size: 0x8, addend: 0x0, symName: __ZNKSt3__116reverse_iteratorINS0_IP3BidEEE4baseB7v160006Ev, symObjAddr: 0x4CD4, symBinAddr: 0x100008C80, symSize: 0x24 }
  - { offsetInCU: 0xFE8F, offset: 0xFE8F, size: 0x8, addend: 0x0, symName: __ZNSt3__119__to_address_helperINS_16reverse_iteratorINS1_IP3BidEEEEvE6__callB7v160006ERKS5_, symObjAddr: 0x4CF8, symBinAddr: 0x100008CA4, symSize: 0x38 }
  - { offsetInCU: 0xFEB2, offset: 0xFEB2, size: 0x8, addend: 0x0, symName: __ZNKSt3__116reverse_iteratorINS0_IP3BidEEEptB7v160006Ev, symObjAddr: 0x4D30, symBinAddr: 0x100008CDC, symSize: 0x24 }
  - { offsetInCU: 0xFED7, offset: 0xFED7, size: 0x8, addend: 0x0, symName: __ZNKSt3__116reverse_iteratorINS0_IP3BidEEEdeB7v160006Ev, symObjAddr: 0x4D54, symBinAddr: 0x100008D00, symSize: 0x34 }
  - { offsetInCU: 0xFF0A, offset: 0xFF0A, size: 0x8, addend: 0x0, symName: __ZNSt3__116reverse_iteratorIP3BidEmmB7v160006Ev, symObjAddr: 0x4D88, symBinAddr: 0x100008D34, symSize: 0x20 }
  - { offsetInCU: 0xFF2F, offset: 0xFF2F, size: 0x8, addend: 0x0, symName: __ZNSt3__116reverse_iteratorINS0_IP3BidEEEC2B7v160006ES3_, symObjAddr: 0x4DA8, symBinAddr: 0x100008D54, symSize: 0x2C }
  - { offsetInCU: 0xFF66, offset: 0xFF66, size: 0x8, addend: 0x0, symName: __ZNSt3__116reverse_iteratorIP3BidEC2B7v160006ES2_, symObjAddr: 0x4DD4, symBinAddr: 0x100008D80, symSize: 0x28 }
  - { offsetInCU: 0xFF9D, offset: 0xFF9D, size: 0x8, addend: 0x0, symName: __ZNSt3__114__split_bufferI3BidRNS_9allocatorIS1_EEED2Ev, symObjAddr: 0x4DFC, symBinAddr: 0x100008DA8, symSize: 0x8C }
  - { offsetInCU: 0xFFC8, offset: 0xFFC8, size: 0x8, addend: 0x0, symName: __ZNSt3__114__split_bufferI3BidRNS_9allocatorIS1_EEE5clearB7v160006Ev, symObjAddr: 0x4E88, symBinAddr: 0x100008E34, symSize: 0x28 }
  - { offsetInCU: 0xFFED, offset: 0xFFED, size: 0x8, addend: 0x0, symName: __ZNKSt3__114__split_bufferI3BidRNS_9allocatorIS1_EEE8capacityB7v160006Ev, symObjAddr: 0x4EB0, symBinAddr: 0x100008E5C, symSize: 0x40 }
  - { offsetInCU: 0x10012, offset: 0x10012, size: 0x8, addend: 0x0, symName: __ZNSt3__114__split_bufferI3BidRNS_9allocatorIS1_EEE17__destruct_at_endB7v160006EPS1_, symObjAddr: 0x4EF0, symBinAddr: 0x100008E9C, symSize: 0x2C }
  - { offsetInCU: 0x10044, offset: 0x10044, size: 0x8, addend: 0x0, symName: __ZNSt3__114__split_bufferI3BidRNS_9allocatorIS1_EEE17__destruct_at_endB7v160006EPS1_NS_17integral_constantIbLb0EEE, symObjAddr: 0x4F1C, symBinAddr: 0x100008EC8, symSize: 0x80 }
  - { offsetInCU: 0x10084, offset: 0x10084, size: 0x8, addend: 0x0, symName: __ZNKSt3__114__split_bufferI3BidRNS_9allocatorIS1_EEE9__end_capB7v160006Ev, symObjAddr: 0x4F9C, symBinAddr: 0x100008F48, symSize: 0x28 }
  - { offsetInCU: 0x100A9, offset: 0x100A9, size: 0x8, addend: 0x0, symName: __ZNKSt3__117__compressed_pairIP3BidRNS_9allocatorIS1_EEE5firstB7v160006Ev, symObjAddr: 0x4FC4, symBinAddr: 0x100008F70, symSize: 0x24 }
  - { offsetInCU: 0x100CD, offset: 0x100CD, size: 0x8, addend: 0x0, symName: __ZNKSt3__112basic_stringIcNS_11char_traitsIcEENS_9allocatorIcEEE7compareINS_17basic_string_viewIcS2_EEEENS_9enable_ifIXsr33__can_be_converted_to_string_viewIcS2_T_EE5valueEiE4typeERKSA_, symObjAddr: 0x4FE8, symBinAddr: 0x100008F94, symSize: 0x12C }
  - { offsetInCU: 0x10149, offset: 0x10149, size: 0x8, addend: 0x0, symName: __ZNKSt3__112basic_stringIcNS_11char_traitsIcEENS_9allocatorIcEEEcvNS_17basic_string_viewIcS2_EEB7v160006Ev, symObjAddr: 0x5114, symBinAddr: 0x1000090C0, symSize: 0x50 }
  - { offsetInCU: 0x1016E, offset: 0x1016E, size: 0x8, addend: 0x0, symName: __ZNKSt3__117basic_string_viewIcNS_11char_traitsIcEEE4sizeB7v160006Ev, symObjAddr: 0x5164, symBinAddr: 0x100009110, symSize: 0x18 }
  - { offsetInCU: 0x10193, offset: 0x10193, size: 0x8, addend: 0x0, symName: __ZNSt3__111char_traitsIcE7compareEPKcS3_m, symObjAddr: 0x517C, symBinAddr: 0x100009128, symSize: 0x6C }
  - { offsetInCU: 0x101D2, offset: 0x101D2, size: 0x8, addend: 0x0, symName: __ZNKSt3__117basic_string_viewIcNS_11char_traitsIcEEE4dataB7v160006Ev, symObjAddr: 0x51E8, symBinAddr: 0x100009194, symSize: 0x18 }
  - { offsetInCU: 0x101F7, offset: 0x101F7, size: 0x8, addend: 0x0, symName: __ZNSt3__117basic_string_viewIcNS_11char_traitsIcEEEC1B7v160006EPKcm, symObjAddr: 0x5234, symBinAddr: 0x1000091E0, symSize: 0x3C }
  - { offsetInCU: 0x1023E, offset: 0x1023E, size: 0x8, addend: 0x0, symName: __ZNSt3__117basic_string_viewIcNS_11char_traitsIcEEEC2B7v160006EPKcm, symObjAddr: 0x5270, symBinAddr: 0x10000921C, symSize: 0x50 }
  - { offsetInCU: 0x10285, offset: 0x10285, size: 0x8, addend: 0x0, symName: __ZN3BidaSEOS_, symObjAddr: 0x52C0, symBinAddr: 0x10000926C, symSize: 0x68 }
  - { offsetInCU: 0x102B5, offset: 0x102B5, size: 0x8, addend: 0x0, symName: __ZNSt3__112basic_stringIcNS_11char_traitsIcEENS_9allocatorIcEEEaSB7v160006EOS5_, symObjAddr: 0x5328, symBinAddr: 0x1000092D4, symSize: 0x34 }
  - { offsetInCU: 0x102E8, offset: 0x102E8, size: 0x8, addend: 0x0, symName: __ZNSt3__112basic_stringIcNS_11char_traitsIcEENS_9allocatorIcEEE13__move_assignB7v160006ERS5_NS_17integral_constantIbLb1EEE, symObjAddr: 0x535C, symBinAddr: 0x100009308, symSize: 0xC8 }
  - { offsetInCU: 0x1032A, offset: 0x1032A, size: 0x8, addend: 0x0, symName: __ZNSt3__116allocator_traitsINS_9allocatorIcEEE10deallocateB7v160006ERS2_Pcm, symObjAddr: 0x5424, symBinAddr: 0x1000093D0, symSize: 0x34 }
  - { offsetInCU: 0x1036C, offset: 0x1036C, size: 0x8, addend: 0x0, symName: __ZNSt3__112basic_stringIcNS_11char_traitsIcEENS_9allocatorIcEEE7__allocB7v160006Ev, symObjAddr: 0x5458, symBinAddr: 0x100009404, symSize: 0x24 }
  - { offsetInCU: 0x10391, offset: 0x10391, size: 0x8, addend: 0x0, symName: __ZNKSt3__112basic_stringIcNS_11char_traitsIcEENS_9allocatorIcEEE14__get_long_capB7v160006Ev, symObjAddr: 0x547C, symBinAddr: 0x100009428, symSize: 0x30 }
  - { offsetInCU: 0x103B6, offset: 0x103B6, size: 0x8, addend: 0x0, symName: __ZNSt3__112basic_stringIcNS_11char_traitsIcEENS_9allocatorIcEEE19__move_assign_allocB7v160006ERS5_, symObjAddr: 0x54AC, symBinAddr: 0x100009458, symSize: 0x2C }
  - { offsetInCU: 0x103EA, offset: 0x103EA, size: 0x8, addend: 0x0, symName: __ZNSt3__19allocatorIcE10deallocateB7v160006EPcm, symObjAddr: 0x54D8, symBinAddr: 0x100009484, symSize: 0x40 }
  - { offsetInCU: 0x1042B, offset: 0x1042B, size: 0x8, addend: 0x0, symName: __ZNSt3__117__compressed_pairINS_12basic_stringIcNS_11char_traitsIcEENS_9allocatorIcEEE5__repES5_E6secondB7v160006Ev, symObjAddr: 0x5518, symBinAddr: 0x1000094C4, symSize: 0x24 }
  - { offsetInCU: 0x10450, offset: 0x10450, size: 0x8, addend: 0x0, symName: __ZNSt3__122__compressed_pair_elemINS_9allocatorIcEELi1ELb1EE5__getB7v160006Ev, symObjAddr: 0x553C, symBinAddr: 0x1000094E8, symSize: 0x14 }
  - { offsetInCU: 0x10475, offset: 0x10475, size: 0x8, addend: 0x0, symName: __ZNSt3__112basic_stringIcNS_11char_traitsIcEENS_9allocatorIcEEE19__move_assign_allocB7v160006ERS5_NS_17integral_constantIbLb1EEE, symObjAddr: 0x5550, symBinAddr: 0x1000094FC, symSize: 0x38 }
  - { offsetInCU: 0x104B5, offset: 0x104B5, size: 0x8, addend: 0x0, symName: __ZNSt3__112basic_stringIcNS_11char_traitsIcEENS_9allocatorIcEEE15__make_iteratorB7v160006EPc, symObjAddr: 0x5588, symBinAddr: 0x100009534, symSize: 0x34 }
  - { offsetInCU: 0x104E9, offset: 0x104E9, size: 0x8, addend: 0x0, symName: __ZNSt3__112basic_stringIcNS_11char_traitsIcEENS_9allocatorIcEEE13__get_pointerB7v160006Ev, symObjAddr: 0x55BC, symBinAddr: 0x100009568, symSize: 0x54 }
  - { offsetInCU: 0x1050E, offset: 0x1050E, size: 0x8, addend: 0x0, symName: __ZNSt3__111__wrap_iterIPcEC1B7v160006EPKvS1_, symObjAddr: 0x5610, symBinAddr: 0x1000095BC, symSize: 0x3C }
  - { offsetInCU: 0x10553, offset: 0x10553, size: 0x8, addend: 0x0, symName: __ZNSt3__111__wrap_iterIPcEC2B7v160006EPKvS1_, symObjAddr: 0x564C, symBinAddr: 0x1000095F8, symSize: 0x24 }
  - { offsetInCU: 0x10598, offset: 0x10598, size: 0x8, addend: 0x0, symName: __ZNSt3__111__wrap_iterIPcEppB7v160006Ev, symObjAddr: 0x5724, symBinAddr: 0x1000096D0, symSize: 0x20 }
  - { offsetInCU: 0x105BD, offset: 0x105BD, size: 0x8, addend: 0x0, symName: __ZNKSt3__111__wrap_iterIPcEdeB7v160006Ev, symObjAddr: 0x5744, symBinAddr: 0x1000096F0, symSize: 0x18 }
  - { offsetInCU: 0x105E2, offset: 0x105E2, size: 0x8, addend: 0x0, symName: __ZNKSt3__111__wrap_iterIPcEplB7v160006El, symObjAddr: 0x5824, symBinAddr: 0x1000097D0, symSize: 0x3C }
  - { offsetInCU: 0x10623, offset: 0x10623, size: 0x8, addend: 0x0, symName: __ZNKSt3__111__wrap_iterIPKcE4baseB7v160006Ev, symObjAddr: 0x5860, symBinAddr: 0x10000980C, symSize: 0x18 }
  - { offsetInCU: 0x10648, offset: 0x10648, size: 0x8, addend: 0x0, symName: __ZNSt3__111__wrap_iterIPcEpLB7v160006El, symObjAddr: 0x5878, symBinAddr: 0x100009824, symSize: 0x28 }
  - { offsetInCU: 0x1067A, offset: 0x1067A, size: 0x8, addend: 0x0, symName: __ZNSt3__16vectorI3BidNS_9allocatorIS1_EEE13__move_assignERS4_NS_17integral_constantIbLb1EEE, symObjAddr: 0x58A0, symBinAddr: 0x10000984C, symSize: 0xAC }
  - { offsetInCU: 0x106BB, offset: 0x106BB, size: 0x8, addend: 0x0, symName: __ZNSt3__16vectorI3BidNS_9allocatorIS1_EEE13__vdeallocateEv, symObjAddr: 0x594C, symBinAddr: 0x1000098F8, symSize: 0x8C }
  - { offsetInCU: 0x106E2, offset: 0x106E2, size: 0x8, addend: 0x0, symName: __ZNSt3__16vectorI3BidNS_9allocatorIS1_EEE19__move_assign_allocB7v160006ERS4_, symObjAddr: 0x59D8, symBinAddr: 0x100009984, symSize: 0x2C }
  - { offsetInCU: 0x10716, offset: 0x10716, size: 0x8, addend: 0x0, symName: __ZNSt3__16vectorI3BidNS_9allocatorIS1_EEE5clearB7v160006Ev, symObjAddr: 0x5A18, symBinAddr: 0x1000099C4, symSize: 0x4C }
  - { offsetInCU: 0x1074A, offset: 0x1074A, size: 0x8, addend: 0x0, symName: __ZNKSt3__16vectorI3BidNS_9allocatorIS1_EEE17__annotate_shrinkB7v160006Em, symObjAddr: 0x5A64, symBinAddr: 0x100009A10, symSize: 0xD0 }
  - { offsetInCU: 0x1077E, offset: 0x1077E, size: 0x8, addend: 0x0, symName: __ZNSt3__16vectorI3BidNS_9allocatorIS1_EEE19__move_assign_allocB7v160006ERS4_NS_17integral_constantIbLb1EEE, symObjAddr: 0x5B34, symBinAddr: 0x100009AE0, symSize: 0x38 }
  - { offsetInCU: 0x2E5, offset: 0x10BB0, size: 0x8, addend: 0x0, symName: __ZN3csvlsERNSt3__114basic_ofstreamIcNS0_11char_traitsIcEEEERKNS_3RowE, symObjAddr: 0x290C, symBinAddr: 0x10000C028, symSize: 0xD0 }
  - { offsetInCU: 0x33F, offset: 0x10C0A, size: 0x8, addend: 0x0, symName: __ZN3csvlsERNSt3__113basic_ostreamIcNS0_11char_traitsIcEEEERKNS_3RowE, symObjAddr: 0x308C, symBinAddr: 0x10000C7A8, symSize: 0x9C }
  - { offsetInCU: 0x913B, offset: 0x19A06, size: 0x8, addend: 0x0, symName: __ZNSt3__1neB7v160006IcNS_11char_traitsIcEENS_9allocatorIcEEEEbRKNS_12basic_stringIT_T0_T1_EEPKS6_, symObjAddr: 0x884, symBinAddr: 0x10000A2F0, symSize: 0x34 }
  - { offsetInCU: 0x94EF, offset: 0x19DBA, size: 0x8, addend: 0x0, symName: __ZNSt3__1neB7v160006IPPN3csv3RowEEEbRKNS_11__wrap_iterIT_EES9_, symObjAddr: 0x1298, symBinAddr: 0x10000AD04, symSize: 0x34 }
  - { offsetInCU: 0x9716, offset: 0x19FE1, size: 0x8, addend: 0x0, symName: __ZNSt3__1neB7v160006IPNS_12basic_stringIcNS_11char_traitsIcEENS_9allocatorIcEEEEEEbRKNS_11__wrap_iterIT_EESC_, symObjAddr: 0x17E4, symBinAddr: 0x10000B018, symSize: 0x34 }
  - { offsetInCU: 0x9759, offset: 0x1A024, size: 0x8, addend: 0x0, symName: __ZNSt3__1neB7v160006IPKNS_12basic_stringIcNS_11char_traitsIcEENS_9allocatorIcEEEEEEbRKNS_11__wrap_iterIT_EESD_, symObjAddr: 0x21AC, symBinAddr: 0x10000B9E0, symSize: 0x34 }
  - { offsetInCU: 0x9909, offset: 0x1A1D4, size: 0x8, addend: 0x0, symName: __ZNSt3__1neB7v160006IPKPN3csv3RowEEEbRKNS_11__wrap_iterIT_EESA_, symObjAddr: 0x28A8, symBinAddr: 0x10000BFC4, symSize: 0x34 }
  - { offsetInCU: 0x9957, offset: 0x1A222, size: 0x8, addend: 0x0, symName: __ZNSt3__1eqB7v160006INS_9allocatorIcEEEEbRKNS_12basic_stringIcNS_11char_traitsIcEET_EES9_, symObjAddr: 0x2C80, symBinAddr: 0x10000C39C, symSize: 0x148 }
  - { offsetInCU: 0x99CA, offset: 0x1A295, size: 0x8, addend: 0x0, symName: __ZNSt3__119__debug_db_insert_iB7v160006INS_11__wrap_iterIPPN3csv3RowEEEEEvPT_, symObjAddr: 0x33EC, symBinAddr: 0x10000CB08, symSize: 0x10 }
  - { offsetInCU: 0x99FB, offset: 0x1A2C6, size: 0x8, addend: 0x0, symName: __ZNSt3__1eqB7v160006IPPN3csv3RowEEEbRKNS_11__wrap_iterIT_EES9_, symObjAddr: 0x3408, symBinAddr: 0x10000CB18, symSize: 0x48 }
  - { offsetInCU: 0x9A3E, offset: 0x1A309, size: 0x8, addend: 0x0, symName: __ZNSt3__119__debug_db_insert_iB7v160006INS_11__wrap_iterIPNS_12basic_stringIcNS_11char_traitsIcEENS_9allocatorIcEEEEEEEEvPT_, symObjAddr: 0x3570, symBinAddr: 0x10000CC80, symSize: 0x10 }
  - { offsetInCU: 0x9A6F, offset: 0x1A33A, size: 0x8, addend: 0x0, symName: __ZNSt3__1eqB7v160006IPNS_12basic_stringIcNS_11char_traitsIcEENS_9allocatorIcEEEEEEbRKNS_11__wrap_iterIT_EESC_, symObjAddr: 0x35A0, symBinAddr: 0x10000CCB0, symSize: 0x48 }
  - { offsetInCU: 0x9AB2, offset: 0x1A37D, size: 0x8, addend: 0x0, symName: __ZNSt3__112__to_addressB7v160006INS_12basic_stringIcNS_11char_traitsIcEENS_9allocatorIcEEEEEEPT_S8_, symObjAddr: 0x3600, symBinAddr: 0x10000CD10, symSize: 0x14 }
  - { offsetInCU: 0x9AE7, offset: 0x1A3B2, size: 0x8, addend: 0x0, symName: __ZNSt3__1eqB7v160006IPKNS_12basic_stringIcNS_11char_traitsIcEENS_9allocatorIcEEEEEEbRKNS_11__wrap_iterIT_EESD_, symObjAddr: 0x367C, symBinAddr: 0x10000CD8C, symSize: 0x48 }
  - { offsetInCU: 0x9B2A, offset: 0x1A3F5, size: 0x8, addend: 0x0, symName: __ZNSt3__1eqB7v160006IPKPN3csv3RowEEEbRKNS_11__wrap_iterIT_EESA_, symObjAddr: 0x36FC, symBinAddr: 0x10000CE0C, symSize: 0x48 }
  - { offsetInCU: 0x9B6D, offset: 0x1A438, size: 0x8, addend: 0x0, symName: __ZNSt3__119__debug_db_insert_iB7v160006INS_11__wrap_iterIPKNS_12basic_stringIcNS_11char_traitsIcEENS_9allocatorIcEEEEEEEEvPT_, symObjAddr: 0x3840, symBinAddr: 0x10000CF50, symSize: 0x10 }
  - { offsetInCU: 0x9B9E, offset: 0x1A469, size: 0x8, addend: 0x0, symName: __ZNSt3__119__debug_db_insert_cB7v160006INS_6vectorINS_12basic_stringIcNS_11char_traitsIcEENS_9allocatorIcEEEENS5_IS7_EEEEEEvPT_, symObjAddr: 0x3D84, symBinAddr: 0x10000D054, symSize: 0x10 }
  - { offsetInCU: 0x9BCF, offset: 0x1A49A, size: 0x8, addend: 0x0, symName: __ZNSt3__119__debug_db_insert_cB7v160006INS_6vectorIPN3csv3RowENS_9allocatorIS4_EEEEEEvPT_, symObjAddr: 0x3EF0, symBinAddr: 0x10000D1C0, symSize: 0x10 }
  - { offsetInCU: 0x9C00, offset: 0x1A4CB, size: 0x8, addend: 0x0, symName: __ZNSt3__118__debug_db_erase_cB7v160006INS_6vectorINS_12basic_stringIcNS_11char_traitsIcEENS_9allocatorIcEEEENS5_IS7_EEEEEEvPT_, symObjAddr: 0x41D0, symBinAddr: 0x10000D4A0, symSize: 0x10 }
  - { offsetInCU: 0x9C31, offset: 0x1A4FC, size: 0x8, addend: 0x0, symName: __ZNSt3__118__debug_db_erase_cB7v160006INS_6vectorIPN3csv3RowENS_9allocatorIS4_EEEEEEvPT_, symObjAddr: 0x4710, symBinAddr: 0x10000D964, symSize: 0x10 }
  - { offsetInCU: 0x9C62, offset: 0x1A52D, size: 0x8, addend: 0x0, symName: __ZNSt3__112__to_addressB7v160006IPN3csv3RowEEEPT_S5_, symObjAddr: 0x482C, symBinAddr: 0x10000DA80, symSize: 0x14 }
  - { offsetInCU: 0x9C97, offset: 0x1A562, size: 0x8, addend: 0x0, symName: __ZNSt3__1eqB7v160006IcNS_11char_traitsIcEENS_9allocatorIcEEEEbRKNS_12basic_stringIT_T0_T1_EEPKS6_, symObjAddr: 0x4C8C, symBinAddr: 0x10000DD90, symSize: 0xAC }
  - { offsetInCU: 0x9CFE, offset: 0x1A5C9, size: 0x8, addend: 0x0, symName: __ZNSt3__119__allocate_at_leastB7v160006INS_9allocatorINS_12basic_stringIcNS_11char_traitsIcEENS1_IcEEEEEEEENS_19__allocation_resultINS_16allocator_traitsIT_E7pointerEEERSA_m, symObjAddr: 0x56DC, symBinAddr: 0x10000E5AC, symSize: 0x40 }
  - { offsetInCU: 0x9D41, offset: 0x1A60C, size: 0x8, addend: 0x0, symName: __ZNSt3__142__uninitialized_allocator_move_if_noexceptB7v160006INS_9allocatorINS_12basic_stringIcNS_11char_traitsIcEENS1_IcEEEEEENS_16reverse_iteratorIPS6_EESA_SA_EET2_RT_T0_T1_SB_, symObjAddr: 0x5914, symBinAddr: 0x10000E764, symSize: 0x12C }
  - { offsetInCU: 0x9DE1, offset: 0x1A6AC, size: 0x8, addend: 0x0, symName: __ZNSt3__14swapB7v160006IPNS_12basic_stringIcNS_11char_traitsIcEENS_9allocatorIcEEEEEENS_9enable_ifIXaasr21is_move_constructibleIT_EE5valuesr18is_move_assignableIS9_EE5valueEvE4typeERS9_SC_, symObjAddr: 0x5A8C, symBinAddr: 0x10000E8DC, symSize: 0x3C }
  - { offsetInCU: 0x9E32, offset: 0x1A6FD, size: 0x8, addend: 0x0, symName: __ZNSt3__125__debug_db_invalidate_allB7v160006INS_6vectorINS_12basic_stringIcNS_11char_traitsIcEENS_9allocatorIcEEEENS5_IS7_EEEEEEvPT_, symObjAddr: 0x5B90, symBinAddr: 0x10000E9E0, symSize: 0x10 }
  - { offsetInCU: 0x9E63, offset: 0x1A72E, size: 0x8, addend: 0x0, symName: __ZNSt3__122__make_exception_guardB7v160006INS_29_AllocatorDestroyRangeReverseINS_9allocatorINS_12basic_stringIcNS_11char_traitsIcEENS2_IcEEEEEENS_16reverse_iteratorIPS7_EEEEEENS_28__exception_guard_exceptionsIT_EESE_, symObjAddr: 0x5BA0, symBinAddr: 0x10000E9F0, symSize: 0x4C }
  - { offsetInCU: 0x9E99, offset: 0x1A764, size: 0x8, addend: 0x0, symName: __ZNSt3__1neB7v160006IPNS_12basic_stringIcNS_11char_traitsIcEENS_9allocatorIcEEEES7_EEbRKNS_16reverse_iteratorIT_EERKNS8_IT0_EE, symObjAddr: 0x5C30, symBinAddr: 0x10000EA80, symSize: 0x48 }
  - { offsetInCU: 0x9EE5, offset: 0x1A7B0, size: 0x8, addend: 0x0, symName: __ZNSt3__112__to_addressB7v160006INS_16reverse_iteratorIPNS_12basic_stringIcNS_11char_traitsIcEENS_9allocatorIcEEEEEEvEENS_5decayIDTclsr19__to_address_helperIT_EE6__callclsr3stdE7declvalIRKSB_EEEEE4typeESD_, symObjAddr: 0x5CAC, symBinAddr: 0x10000EAFC, symSize: 0x24 }
  - { offsetInCU: 0x9F44, offset: 0x1A80F, size: 0x8, addend: 0x0, symName: __ZNSt3__119__allocator_destroyB7v160006INS_9allocatorINS_12basic_stringIcNS_11char_traitsIcEENS1_IcEEEEEENS_16reverse_iteratorINS8_IPS6_EEEESB_EEvRT_T0_T1_, symObjAddr: 0x6054, symBinAddr: 0x10000EDDC, symSize: 0x70 }
  - { offsetInCU: 0x9FA9, offset: 0x1A874, size: 0x8, addend: 0x0, symName: __ZNSt3__1neB7v160006INS_16reverse_iteratorIPNS_12basic_stringIcNS_11char_traitsIcEENS_9allocatorIcEEEEEES9_EEbRKNS1_IT_EERKNS1_IT0_EE, symObjAddr: 0x6100, symBinAddr: 0x10000EE88, symSize: 0x60 }
  - { offsetInCU: 0x9FF5, offset: 0x1A8C0, size: 0x8, addend: 0x0, symName: __ZNSt3__112__to_addressB7v160006INS_16reverse_iteratorINS1_IPNS_12basic_stringIcNS_11char_traitsIcEENS_9allocatorIcEEEEEEEEvEENS_5decayIDTclsr19__to_address_helperIT_EE6__callclsr3stdE7declvalIRKSC_EEEEE4typeESE_, symObjAddr: 0x6160, symBinAddr: 0x10000EEE8, symSize: 0x24 }
  - { offsetInCU: 0xA054, offset: 0x1A91F, size: 0x8, addend: 0x0, symName: __ZNSt3__119__allocate_at_leastB7v160006INS_9allocatorIPN3csv3RowEEEEENS_19__allocation_resultINS_16allocator_traitsIT_E7pointerEEERS8_m, symObjAddr: 0x75E0, symBinAddr: 0x10000FE50, symSize: 0x40 }
  - { offsetInCU: 0xA097, offset: 0x1A962, size: 0x8, addend: 0x0, symName: __ZNSt3__142__uninitialized_allocator_move_if_noexceptB7v160006INS_9allocatorIPN3csv3RowEEENS_16reverse_iteratorIPS4_EES8_S4_vEET1_RT_T0_SC_S9_, symObjAddr: 0x7794, symBinAddr: 0x100010004, symSize: 0x78 }
  - { offsetInCU: 0xA115, offset: 0x1A9E0, size: 0x8, addend: 0x0, symName: __ZNSt3__14swapB7v160006IPPN3csv3RowEEENS_9enable_ifIXaasr21is_move_constructibleIT_EE5valuesr18is_move_assignableIS6_EE5valueEvE4typeERS6_S9_, symObjAddr: 0x7858, symBinAddr: 0x1000100C8, symSize: 0x3C }
  - { offsetInCU: 0xA166, offset: 0x1AA31, size: 0x8, addend: 0x0, symName: __ZNSt3__125__debug_db_invalidate_allB7v160006INS_6vectorIPN3csv3RowENS_9allocatorIS4_EEEEEEvPT_, symObjAddr: 0x7940, symBinAddr: 0x1000101B0, symSize: 0x10 }
  - { offsetInCU: 0xA197, offset: 0x1AA62, size: 0x8, addend: 0x0, symName: __ZNSt3__14moveB7v160006INS_16reverse_iteratorIPPN3csv3RowEEES6_EET0_T_S8_S7_, symObjAddr: 0x7950, symBinAddr: 0x1000101C0, symSize: 0x78 }
  - { offsetInCU: 0xA1F1, offset: 0x1AABC, size: 0x8, addend: 0x0, symName: __ZNSt3__16__moveB7v160006INS_17_ClassicAlgPolicyENS_16reverse_iteratorIPPN3csv3RowEEES7_S7_EENS_4pairIT0_T2_EES9_T1_SA_, symObjAddr: 0x79C8, symBinAddr: 0x100010238, symSize: 0x64 }
  - { offsetInCU: 0xA25D, offset: 0x1AB28, size: 0x8, addend: 0x0, symName: __ZNSt3__123__dispatch_copy_or_moveB7v160006INS_17_ClassicAlgPolicyENS_11__move_loopIS1_EENS_14__move_trivialENS_16reverse_iteratorIPPN3csv3RowEEESA_SA_EENS_4pairIT2_T4_EESC_T3_SD_, symObjAddr: 0x7A2C, symBinAddr: 0x10001029C, symSize: 0x64 }
  - { offsetInCU: 0xA2DB, offset: 0x1ABA6, size: 0x8, addend: 0x0, symName: __ZNSt3__121__unwrap_and_dispatchB7v160006INS_10__overloadINS_11__move_loopINS_17_ClassicAlgPolicyEEENS_14__move_trivialEEENS_16reverse_iteratorIPPN3csv3RowEEESC_SC_Li0EEENS_4pairIT0_T2_EESE_T1_SF_, symObjAddr: 0x7A90, symBinAddr: 0x100010300, symSize: 0x12C }
  - { offsetInCU: 0xA36C, offset: 0x1AC37, size: 0x8, addend: 0x0, symName: __ZNSt3__114__unwrap_rangeB7v160006INS_16reverse_iteratorIPPN3csv3RowEEES6_EENS_4pairIT0_S8_EET_SA_, symObjAddr: 0x7BBC, symBinAddr: 0x10001042C, symSize: 0x84 }
  - { offsetInCU: 0xA4E7, offset: 0x1ADB2, size: 0x8, addend: 0x0, symName: __ZNSt3__113__unwrap_iterB7v160006INS_16reverse_iteratorIPPN3csv3RowEEENS_18__unwrap_iter_implIS6_Lb0EEELi0EEEDTclsrT0_8__unwrapclsr3stdE7declvalIT_EEEESA_, symObjAddr: 0x7CE0, symBinAddr: 0x100010550, symSize: 0x44 }
  - { offsetInCU: 0xA52C, offset: 0x1ADF7, size: 0x8, addend: 0x0, symName: __ZNSt3__19make_pairB7v160006INS_16reverse_iteratorIPPN3csv3RowEEES6_EENS_4pairINS_18__unwrap_ref_decayIT_E4typeENS8_IT0_E4typeEEEOS9_OSC_, symObjAddr: 0x7D24, symBinAddr: 0x100010594, symSize: 0x38 }
  - { offsetInCU: 0xA57B, offset: 0x1AE46, size: 0x8, addend: 0x0, symName: __ZNSt3__114__rewrap_rangeB7v160006INS_16reverse_iteratorIPPN3csv3RowEEES6_EET_S7_T0_, symObjAddr: 0x7D5C, symBinAddr: 0x1000105CC, symSize: 0x5C }
  - { offsetInCU: 0xA5C7, offset: 0x1AE92, size: 0x8, addend: 0x0, symName: __ZNSt3__113__rewrap_iterB7v160006INS_16reverse_iteratorIPPN3csv3RowEEES6_NS_18__unwrap_iter_implIS6_Lb0EEEEET_S9_T0_, symObjAddr: 0x7DB8, symBinAddr: 0x100010628, symSize: 0x74 }
  - { offsetInCU: 0xA61C, offset: 0x1AEE7, size: 0x8, addend: 0x0, symName: __ZNSt3__1neB7v160006IPPN3csv3RowES4_EEbRKNS_16reverse_iteratorIT_EERKNS5_IT0_EE, symObjAddr: 0x7E2C, symBinAddr: 0x10001069C, symSize: 0x48 }
  - { offsetInCU: 0xA71A, offset: 0x1AFE5, size: 0x8, addend: 0x0, symName: __ZNSt3__122__make_exception_guardB7v160006INS_6vectorINS_12basic_stringIcNS_11char_traitsIcEENS_9allocatorIcEEEENS5_IS7_EEE16__destroy_vectorEEENS_28__exception_guard_exceptionsIT_EESC_, symObjAddr: 0x8318, symBinAddr: 0x100010B88, symSize: 0x40 }
  - { offsetInCU: 0xA74F, offset: 0x1B01A, size: 0x8, addend: 0x0, symName: __ZNSt3__130__uninitialized_allocator_copyB7v160006INS_9allocatorINS_12basic_stringIcNS_11char_traitsIcEENS1_IcEEEEEEPS6_S8_S8_EET2_RT_T0_T1_S9_, symObjAddr: 0x8594, symBinAddr: 0x100010E04, symSize: 0xF4 }
  - { offsetInCU: 0xA7ED, offset: 0x1B0B8, size: 0x8, addend: 0x0, symName: __ZNSt3__122__make_exception_guardB7v160006INS_29_AllocatorDestroyRangeReverseINS_9allocatorINS_12basic_stringIcNS_11char_traitsIcEENS2_IcEEEEEEPS7_EEEENS_28__exception_guard_exceptionsIT_EESC_, symObjAddr: 0x8688, symBinAddr: 0x100010EF8, symSize: 0x4C }
  - { offsetInCU: 0xA823, offset: 0x1B0EE, size: 0x8, addend: 0x0, symName: __ZNSt3__119__allocator_destroyB7v160006INS_9allocatorINS_12basic_stringIcNS_11char_traitsIcEENS1_IcEEEEEENS_16reverse_iteratorIPS6_EESA_EEvRT_T0_T1_, symObjAddr: 0x8918, symBinAddr: 0x100011188, symSize: 0x70 }
  - { offsetInCU: 0xA886, offset: 0x1B151, size: 0x8, addend: 0x0, symName: __ZNSt3__1miB7v160006IPKPN3csv3RowES5_EEDTmicldtfp_4baseEcldtfp0_4baseEERKNS_11__wrap_iterIT_EERKNS7_IT0_EE, symObjAddr: 0x89D8, symBinAddr: 0x100011248, symSize: 0x48 }
  - { offsetInCU: 0xA8D2, offset: 0x1B19D, size: 0x8, addend: 0x0, symName: __ZNSt3__14moveB7v160006IPPN3csv3RowES4_EET0_T_S6_S5_, symObjAddr: 0x8AAC, symBinAddr: 0x10001131C, symSize: 0x40 }
  - { offsetInCU: 0xA92C, offset: 0x1B1F7, size: 0x8, addend: 0x0, symName: __ZNSt3__16__moveB7v160006INS_17_ClassicAlgPolicyEPPN3csv3RowES5_S5_EENS_4pairIT0_T2_EES7_T1_S8_, symObjAddr: 0x8BB4, symBinAddr: 0x100011424, symSize: 0x44 }
  - { offsetInCU: 0xA998, offset: 0x1B263, size: 0x8, addend: 0x0, symName: __ZNSt3__123__dispatch_copy_or_moveB7v160006INS_17_ClassicAlgPolicyENS_11__move_loopIS1_EENS_14__move_trivialEPPN3csv3RowES8_S8_EENS_4pairIT2_T4_EESA_T3_SB_, symObjAddr: 0x8BF8, symBinAddr: 0x100011468, symSize: 0x44 }
  - { offsetInCU: 0xAA16, offset: 0x1B2E1, size: 0x8, addend: 0x0, symName: __ZNSt3__121__unwrap_and_dispatchB7v160006INS_10__overloadINS_11__move_loopINS_17_ClassicAlgPolicyEEENS_14__move_trivialEEEPPN3csv3RowESA_SA_Li0EEENS_4pairIT0_T2_EESC_T1_SD_, symObjAddr: 0x8C3C, symBinAddr: 0x1000114AC, symSize: 0xB4 }
  - { offsetInCU: 0xAAA5, offset: 0x1B370, size: 0x8, addend: 0x0, symName: __ZNSt3__114__unwrap_rangeB7v160006IPPN3csv3RowES4_EENS_4pairIT0_S6_EET_S8_, symObjAddr: 0x8CF0, symBinAddr: 0x100011560, symSize: 0x60 }
  - { offsetInCU: 0xAC6A, offset: 0x1B535, size: 0x8, addend: 0x0, symName: __ZNSt3__113__unwrap_iterB7v160006IPPN3csv3RowENS_18__unwrap_iter_implIS4_Lb1EEELi0EEEDTclsrT0_8__unwrapclsr3stdE7declvalIT_EEEES8_, symObjAddr: 0x8D98, symBinAddr: 0x100011608, symSize: 0x24 }
  - { offsetInCU: 0xACAF, offset: 0x1B57A, size: 0x8, addend: 0x0, symName: __ZNSt3__19make_pairB7v160006IPPN3csv3RowES4_EENS_4pairINS_18__unwrap_ref_decayIT_E4typeENS6_IT0_E4typeEEEOS7_OSA_, symObjAddr: 0x8DBC, symBinAddr: 0x10001162C, symSize: 0x38 }
  - { offsetInCU: 0xACFE, offset: 0x1B5C9, size: 0x8, addend: 0x0, symName: __ZNSt3__114__rewrap_rangeB7v160006IPPN3csv3RowES4_EET_S5_T0_, symObjAddr: 0x8DF4, symBinAddr: 0x100011664, symSize: 0x2C }
  - { offsetInCU: 0xAD4A, offset: 0x1B615, size: 0x8, addend: 0x0, symName: __ZNSt3__113__rewrap_iterB7v160006IPPN3csv3RowES4_NS_18__unwrap_iter_implIS4_Lb1EEEEET_S7_T0_, symObjAddr: 0x8E20, symBinAddr: 0x100011690, symSize: 0x3C }
  - { offsetInCU: 0xAD9F, offset: 0x1B66A, size: 0x8, addend: 0x0, symName: __ZNSt3__119__copy_trivial_implB7v160006IPN3csv3RowES3_EENS_4pairIPT_PT0_EES6_S6_S8_, symObjAddr: 0x8E5C, symBinAddr: 0x1000116CC, symSize: 0x84 }
  - { offsetInCU: 0xAE07, offset: 0x1B6D2, size: 0x8, addend: 0x0, symName: __ZNSt3__19make_pairB7v160006IRPPN3csv3RowES4_EENS_4pairINS_18__unwrap_ref_decayIT_E4typeENS7_IT0_E4typeEEEOS8_OSB_, symObjAddr: 0x8EE0, symBinAddr: 0x100011750, symSize: 0x38 }
  - { offsetInCU: 0xAEA9, offset: 0x1B774, size: 0x8, addend: 0x0, symName: __ZNSt3__1miB7v160006IPKPN3csv3RowEPS3_EEDTmicldtfp_4baseEcldtfp0_4baseEERKNS_11__wrap_iterIT_EERKNS8_IT0_EE, symObjAddr: 0x9100, symBinAddr: 0x100011970, symSize: 0x48 }
  - { offsetInCU: 0xAF28, offset: 0x1B7F3, size: 0x8, addend: 0x0, symName: __ZNSt3__113move_backwardB7v160006IPPN3csv3RowES4_EET0_T_S6_S5_, symObjAddr: 0x9670, symBinAddr: 0x100011EE0, symSize: 0x40 }
  - { offsetInCU: 0xAF82, offset: 0x1B84D, size: 0x8, addend: 0x0, symName: __ZNSt3__115__move_backwardB7v160006INS_17_ClassicAlgPolicyEPPN3csv3RowES5_S5_EENS_4pairIT0_T2_EES7_T1_S8_, symObjAddr: 0x96D8, symBinAddr: 0x100011F48, symSize: 0x44 }
  - { offsetInCU: 0xAFEE, offset: 0x1B8B9, size: 0x8, addend: 0x0, symName: __ZNSt3__123__dispatch_copy_or_moveB7v160006INS_17_ClassicAlgPolicyENS_20__move_backward_loopIS1_EENS_23__move_backward_trivialEPPN3csv3RowES8_S8_EENS_4pairIT2_T4_EESA_T3_SB_, symObjAddr: 0x971C, symBinAddr: 0x100011F8C, symSize: 0x44 }
  - { offsetInCU: 0xB06C, offset: 0x1B937, size: 0x8, addend: 0x0, symName: __ZNSt3__121__unwrap_and_dispatchB7v160006INS_10__overloadINS_20__move_backward_loopINS_17_ClassicAlgPolicyEEENS_23__move_backward_trivialEEEPPN3csv3RowESA_SA_Li0EEENS_4pairIT0_T2_EESC_T1_SD_, symObjAddr: 0x9760, symBinAddr: 0x100011FD0, symSize: 0xB4 }
  - { offsetInCU: 0xB142, offset: 0x1BA0D, size: 0x8, addend: 0x0, symName: __ZNSt3__128__copy_backward_trivial_implB7v160006IPN3csv3RowES3_EENS_4pairIPT_PT0_EES6_S6_S8_, symObjAddr: 0x985C, symBinAddr: 0x1000120CC, symSize: 0x94 }
  - { offsetInCU: 0xB1AA, offset: 0x1BA75, size: 0x8, addend: 0x0, symName: __ZNSt3__19make_pairB7v160006IRPPN3csv3RowES5_EENS_4pairINS_18__unwrap_ref_decayIT_E4typeENS7_IT0_E4typeEEEOS8_OSB_, symObjAddr: 0x98F0, symBinAddr: 0x100012160, symSize: 0x38 }
  - { offsetInCU: 0xB1F9, offset: 0x1BAC4, size: 0x8, addend: 0x0, symName: __ZNSt3__18distanceB7v160006INS_13move_iteratorIPPN3csv3RowEEEEENS_15iterator_traitsIT_E15difference_typeES8_S8_, symObjAddr: 0x9AC8, symBinAddr: 0x100012338, symSize: 0x3C }
  - { offsetInCU: 0xB23C, offset: 0x1BB07, size: 0x8, addend: 0x0, symName: __ZNSt3__110__distanceB7v160006INS_13move_iteratorIPPN3csv3RowEEEEENS_15iterator_traitsIT_E15difference_typeES8_S8_NS_26random_access_iterator_tagE, symObjAddr: 0x9BA4, symBinAddr: 0x100012414, symSize: 0x30 }
  - { offsetInCU: 0xB28A, offset: 0x1BB55, size: 0x8, addend: 0x0, symName: __ZNSt3__1miB7v160006IPPN3csv3RowES4_EEDTmicldtfp_4baseEcldtfp0_4baseEERKNS_13move_iteratorIT_EERKNS6_IT0_EE, symObjAddr: 0x9BD4, symBinAddr: 0x100012444, symSize: 0x48 }
  - { offsetInCU: 0xB2D9, offset: 0x1BBA4, size: 0x8, addend: 0x0, symName: __ZNSt3__142__uninitialized_allocator_move_if_noexceptB7v160006INS_9allocatorIPN3csv3RowEEEPS4_S6_S4_vEET1_RT_T0_SA_S7_, symObjAddr: 0x9CB8, symBinAddr: 0x100012528, symSize: 0x38 }
  - { offsetInCU: 0xB9AB, offset: 0x1C276, size: 0x8, addend: 0x0, symName: __ZNSt3__16vectorINS_12basic_stringIcNS_11char_traitsIcEENS_9allocatorIcEEEENS4_IS6_EEE26__swap_out_circular_bufferERNS_14__split_bufferIS6_RS7_EE, symObjAddr: 0x5130, symBinAddr: 0x10000E234, symSize: 0x118 }
  - { offsetInCU: 0xBA75, offset: 0x1C340, size: 0x8, addend: 0x0, symName: __ZNSt3__16vectorIPN3csv3RowENS_9allocatorIS3_EEE26__swap_out_circular_bufferERNS_14__split_bufferIS3_RS5_EE, symObjAddr: 0x7278, symBinAddr: 0x10000FAE8, symSize: 0x118 }
  - { offsetInCU: 0xBB29, offset: 0x1C3F4, size: 0x8, addend: 0x0, symName: __ZNSt3__16vectorIPN3csv3RowENS_9allocatorIS3_EEE26__swap_out_circular_bufferERNS_14__split_bufferIS3_RS5_EEPS3_, symObjAddr: 0x94E8, symBinAddr: 0x100011D58, symSize: 0x154 }
  - { offsetInCU: 0xDA01, offset: 0x1E2CC, size: 0x8, addend: 0x0, symName: __ZN3csv6ParserC2ERKNSt3__112basic_stringIcNS1_11char_traitsIcEENS1_9allocatorIcEEEERKNS_8DataTypeEc, symObjAddr: 0x0, symBinAddr: 0x100009B18, symSize: 0x5C0 }
  - { offsetInCU: 0xDAA1, offset: 0x1E36C, size: 0x8, addend: 0x0, symName: __ZNSt3__16vectorINS_12basic_stringIcNS_11char_traitsIcEENS_9allocatorIcEEEENS4_IS6_EEEC1B7v160006Ev, symObjAddr: 0x5EC, symBinAddr: 0x10000A0D8, symSize: 0x2C }
  - { offsetInCU: 0xDACA, offset: 0x1E395, size: 0x8, addend: 0x0, symName: __ZNSt3__16vectorIPN3csv3RowENS_9allocatorIS3_EEEC1B7v160006Ev, symObjAddr: 0x618, symBinAddr: 0x10000A104, symSize: 0x2C }
  - { offsetInCU: 0xDC14, offset: 0x1E4DF, size: 0x8, addend: 0x0, symName: __ZNSt3__114basic_ifstreamIcNS_11char_traitsIcEEEC1EPKcj, symObjAddr: 0x668, symBinAddr: 0x10000A130, symSize: 0x16C }
  - { offsetInCU: 0xDC5D, offset: 0x1E528, size: 0x8, addend: 0x0, symName: __ZNKSt3__114basic_ifstreamIcNS_11char_traitsIcEEE7is_openEv, symObjAddr: 0x7D4, symBinAddr: 0x10000A29C, symSize: 0x2C }
  - { offsetInCU: 0xDC83, offset: 0x1E54E, size: 0x8, addend: 0x0, symName: __ZNKSt3__19basic_iosIcNS_11char_traitsIcEEE4goodB7v160006Ev, symObjAddr: 0x800, symBinAddr: 0x10000A2C8, symSize: 0x28 }
  - { offsetInCU: 0xDCA8, offset: 0x1E573, size: 0x8, addend: 0x0, symName: __ZNSt3__16vectorINS_12basic_stringIcNS_11char_traitsIcEENS_9allocatorIcEEEENS4_IS6_EEE9push_backB7v160006ERKS6_, symObjAddr: 0x8B8, symBinAddr: 0x10000A324, symSize: 0x6C }
  - { offsetInCU: 0xDCDD, offset: 0x1E5A8, size: 0x8, addend: 0x0, symName: __ZNSt3__114basic_ifstreamIcNS_11char_traitsIcEEE5closeEv, symObjAddr: 0x924, symBinAddr: 0x10000A390, symSize: 0x58 }
  - { offsetInCU: 0xDD03, offset: 0x1E5CE, size: 0x8, addend: 0x0, symName: __ZNKSt3__16vectorINS_12basic_stringIcNS_11char_traitsIcEENS_9allocatorIcEEEENS4_IS6_EEE4sizeB7v160006Ev, symObjAddr: 0x97C, symBinAddr: 0x10000A3E8, symSize: 0x28 }
  - { offsetInCU: 0xDD2D, offset: 0x1E5F8, size: 0x8, addend: 0x0, symName: __ZNSt3__112basic_stringIcNS_11char_traitsIcEENS_9allocatorIcEEEC1B7v160006IDnEEPKc, symObjAddr: 0x9A4, symBinAddr: 0x10000A410, symSize: 0x34 }
  - { offsetInCU: 0xDD6A, offset: 0x1E635, size: 0x8, addend: 0x0, symName: __ZNSt3__112basic_stringIcNS_11char_traitsIcEENS_9allocatorIcEEE6appendB7v160006ERKS5_, symObjAddr: 0x9D8, symBinAddr: 0x10000A444, symSize: 0x4C }
  - { offsetInCU: 0xDD9E, offset: 0x1E669, size: 0x8, addend: 0x0, symName: __ZN3csv5ErrorC1ERKNSt3__112basic_stringIcNS1_11char_traitsIcEENS1_9allocatorIcEEEE, symObjAddr: 0xA24, symBinAddr: 0x10000A490, symSize: 0x34 }
  - { offsetInCU: 0xDDD5, offset: 0x1E6A0, size: 0x8, addend: 0x0, symName: __ZN3csv5ErrorD1Ev, symObjAddr: 0xA58, symBinAddr: 0x10000A4C4, symSize: 0x2C }
  - { offsetInCU: 0xDE00, offset: 0x1E6CB, size: 0x8, addend: 0x0, symName: __ZN3csv6Parser11parseHeaderEv, symObjAddr: 0xA84, symBinAddr: 0x10000A4F0, symSize: 0xEC }
  - { offsetInCU: 0xDE44, offset: 0x1E70F, size: 0x8, addend: 0x0, symName: __ZN3csv6Parser12parseContentEv, symObjAddr: 0xB70, symBinAddr: 0x10000A5DC, symSize: 0x39C }
  - { offsetInCU: 0xDEBE, offset: 0x1E789, size: 0x8, addend: 0x0, symName: __ZNSt3__114basic_ifstreamIcNS_11char_traitsIcEEED1Ev, symObjAddr: 0xF0C, symBinAddr: 0x10000A978, symSize: 0x40 }
  - { offsetInCU: 0xDF3A, offset: 0x1E805, size: 0x8, addend: 0x0, symName: __ZNSt3__119basic_istringstreamIcNS_11char_traitsIcEENS_9allocatorIcEEEC1B7v160006ERKNS_12basic_stringIcS2_S4_EEj, symObjAddr: 0xF4C, symBinAddr: 0x10000A9B8, symSize: 0xFC }
  - { offsetInCU: 0xDF81, offset: 0x1E84C, size: 0x8, addend: 0x0, symName: __ZNKSt3__19basic_iosIcNS_11char_traitsIcEEEcvbB7v160006Ev, symObjAddr: 0x1048, symBinAddr: 0x10000AAB4, symSize: 0x2C }
  - { offsetInCU: 0xDFAB, offset: 0x1E876, size: 0x8, addend: 0x0, symName: __ZNSt3__119basic_istringstreamIcNS_11char_traitsIcEENS_9allocatorIcEEED1Ev, symObjAddr: 0x1074, symBinAddr: 0x10000AAE0, symSize: 0x40 }
  - { offsetInCU: 0xDFD7, offset: 0x1E8A2, size: 0x8, addend: 0x0, symName: __ZNSt3__16vectorIPN3csv3RowENS_9allocatorIS3_EEED1B7v160006Ev, symObjAddr: 0x10B4, symBinAddr: 0x10000AB20, symSize: 0x2C }
  - { offsetInCU: 0xE000, offset: 0x1E8CB, size: 0x8, addend: 0x0, symName: __ZNSt3__16vectorINS_12basic_stringIcNS_11char_traitsIcEENS_9allocatorIcEEEENS4_IS6_EEED1B7v160006Ev, symObjAddr: 0x10E0, symBinAddr: 0x10000AB4C, symSize: 0x2C }
  - { offsetInCU: 0xE029, offset: 0x1E8F4, size: 0x8, addend: 0x0, symName: __ZN3csv6ParserC1ERKNSt3__112basic_stringIcNS1_11char_traitsIcEENS1_9allocatorIcEEEERKNS_8DataTypeEc, symObjAddr: 0x110C, symBinAddr: 0x10000AB78, symSize: 0x44 }
  - { offsetInCU: 0xE07E, offset: 0x1E949, size: 0x8, addend: 0x0, symName: __ZN3csv6ParserD2Ev, symObjAddr: 0x1150, symBinAddr: 0x10000ABBC, symSize: 0xEC }
  - { offsetInCU: 0xE0C5, offset: 0x1E990, size: 0x8, addend: 0x0, symName: __ZNSt3__111__wrap_iterIPPN3csv3RowEEC1B7v160006Ev, symObjAddr: 0x123C, symBinAddr: 0x10000ACA8, symSize: 0x2C }
  - { offsetInCU: 0xE0EE, offset: 0x1E9B9, size: 0x8, addend: 0x0, symName: __ZNSt3__16vectorIPN3csv3RowENS_9allocatorIS3_EEE5beginB7v160006Ev, symObjAddr: 0x1268, symBinAddr: 0x10000ACD4, symSize: 0x30 }
  - { offsetInCU: 0xE114, offset: 0x1E9DF, size: 0x8, addend: 0x0, symName: __ZNSt3__16vectorIPN3csv3RowENS_9allocatorIS3_EEE3endB7v160006Ev, symObjAddr: 0x12CC, symBinAddr: 0x10000AD38, symSize: 0x30 }
  - { offsetInCU: 0xE13A, offset: 0x1EA05, size: 0x8, addend: 0x0, symName: __ZNKSt3__111__wrap_iterIPPN3csv3RowEEdeB7v160006Ev, symObjAddr: 0x12FC, symBinAddr: 0x10000AD68, symSize: 0x18 }
  - { offsetInCU: 0xE15F, offset: 0x1EA2A, size: 0x8, addend: 0x0, symName: __ZN3csv3RowD1Ev, symObjAddr: 0x1314, symBinAddr: 0x10000AD80, symSize: 0x2C }
  - { offsetInCU: 0xE18A, offset: 0x1EA55, size: 0x8, addend: 0x0, symName: __ZNSt3__111__wrap_iterIPPN3csv3RowEEppB7v160006Ei, symObjAddr: 0x1340, symBinAddr: 0x10000ADAC, symSize: 0x34 }
  - { offsetInCU: 0xE1C8, offset: 0x1EA93, size: 0x8, addend: 0x0, symName: __ZN3csv6ParserD1Ev, symObjAddr: 0x1374, symBinAddr: 0x10000ADE0, symSize: 0x2C }
  - { offsetInCU: 0xE1F3, offset: 0x1EABE, size: 0x8, addend: 0x0, symName: __ZNSt3__16vectorINS_12basic_stringIcNS_11char_traitsIcEENS_9allocatorIcEEEENS4_IS6_EEEixB7v160006Em, symObjAddr: 0x13A0, symBinAddr: 0x10000AE0C, symSize: 0x2C }
  - { offsetInCU: 0xE25B, offset: 0x1EB26, size: 0x8, addend: 0x0, symName: __ZNSt3__118basic_stringstreamIcNS_11char_traitsIcEENS_9allocatorIcEEEC1B7v160006ERKNS_12basic_stringIcS2_S4_EEj, symObjAddr: 0x13CC, symBinAddr: 0x10000AE38, symSize: 0x110 }
  - { offsetInCU: 0xE2A7, offset: 0x1EB72, size: 0x8, addend: 0x0, symName: __ZNSt3__118basic_stringstreamIcNS_11char_traitsIcEENS_9allocatorIcEEED1Ev, symObjAddr: 0x1714, symBinAddr: 0x10000AF48, symSize: 0x40 }
  - { offsetInCU: 0xE2D3, offset: 0x1EB9E, size: 0x8, addend: 0x0, symName: __ZNSt3__111__wrap_iterIPNS_12basic_stringIcNS_11char_traitsIcEENS_9allocatorIcEEEEEC1B7v160006Ev, symObjAddr: 0x1754, symBinAddr: 0x10000AF88, symSize: 0x2C }
  - { offsetInCU: 0xE2FC, offset: 0x1EBC7, size: 0x8, addend: 0x0, symName: __ZNSt3__16vectorINS_12basic_stringIcNS_11char_traitsIcEENS_9allocatorIcEEEENS4_IS6_EEE5beginB7v160006Ev, symObjAddr: 0x1780, symBinAddr: 0x10000AFB4, symSize: 0x30 }
  - { offsetInCU: 0xE322, offset: 0x1EBED, size: 0x8, addend: 0x0, symName: __ZNSt3__111__wrap_iterIPNS_12basic_stringIcNS_11char_traitsIcEENS_9allocatorIcEEEEEppB7v160006Ei, symObjAddr: 0x17B0, symBinAddr: 0x10000AFE4, symSize: 0x34 }
  - { offsetInCU: 0xE360, offset: 0x1EC2B, size: 0x8, addend: 0x0, symName: __ZNSt3__16vectorINS_12basic_stringIcNS_11char_traitsIcEENS_9allocatorIcEEEENS4_IS6_EEE3endB7v160006Ev, symObjAddr: 0x1818, symBinAddr: 0x10000B04C, symSize: 0x30 }
  - { offsetInCU: 0xE386, offset: 0x1EC51, size: 0x8, addend: 0x0, symName: __ZN3csv3RowC1ERKNSt3__16vectorINS1_12basic_stringIcNS1_11char_traitsIcEENS1_9allocatorIcEEEENS6_IS8_EEEE, symObjAddr: 0x1848, symBinAddr: 0x10000B07C, symSize: 0x34 }
  - { offsetInCU: 0xE3BF, offset: 0x1EC8A, size: 0x8, addend: 0x0, symName: __ZNKSt3__111__wrap_iterIPNS_12basic_stringIcNS_11char_traitsIcEENS_9allocatorIcEEEEEptB7v160006Ev, symObjAddr: 0x187C, symBinAddr: 0x10000B0B0, symSize: 0x28 }
  - { offsetInCU: 0xE3E4, offset: 0x1ECAF, size: 0x8, addend: 0x0, symName: __ZNKSt3__112basic_stringIcNS_11char_traitsIcEENS_9allocatorIcEEE6lengthB7v160006Ev, symObjAddr: 0x18A4, symBinAddr: 0x10000B0D8, symSize: 0x24 }
  - { offsetInCU: 0xE409, offset: 0x1ECD4, size: 0x8, addend: 0x0, symName: __ZN3csv3Row4pushERKNSt3__112basic_stringIcNS1_11char_traitsIcEENS1_9allocatorIcEEEE, symObjAddr: 0x18C8, symBinAddr: 0x10000B0FC, symSize: 0x30 }
  - { offsetInCU: 0xE43E, offset: 0x1ED09, size: 0x8, addend: 0x0, symName: __ZNKSt3__112basic_stringIcNS_11char_traitsIcEENS_9allocatorIcEEE6substrB7v160006Emm, symObjAddr: 0x18F8, symBinAddr: 0x10000B12C, symSize: 0x68 }
  - { offsetInCU: 0xE481, offset: 0x1ED4C, size: 0x8, addend: 0x0, symName: __ZNK3csv3Row4sizeEv, symObjAddr: 0x1960, symBinAddr: 0x10000B194, symSize: 0x28 }
  - { offsetInCU: 0xE4A8, offset: 0x1ED73, size: 0x8, addend: 0x0, symName: __ZNSt3__16vectorIPN3csv3RowENS_9allocatorIS3_EEE9push_backB7v160006ERKS3_, symObjAddr: 0x1988, symBinAddr: 0x10000B1BC, symSize: 0x6C }
  - { offsetInCU: 0xE4DD, offset: 0x1EDA8, size: 0x8, addend: 0x0, symName: __ZNK3csv6Parser6getRowEj, symObjAddr: 0x19F4, symBinAddr: 0x10000B228, symSize: 0x120 }
  - { offsetInCU: 0xE512, offset: 0x1EDDD, size: 0x8, addend: 0x0, symName: __ZNKSt3__16vectorIPN3csv3RowENS_9allocatorIS3_EEE4sizeB7v160006Ev, symObjAddr: 0x1B14, symBinAddr: 0x10000B348, symSize: 0x28 }
  - { offsetInCU: 0xE537, offset: 0x1EE02, size: 0x8, addend: 0x0, symName: __ZNKSt3__16vectorIPN3csv3RowENS_9allocatorIS3_EEEixB7v160006Em, symObjAddr: 0x1B3C, symBinAddr: 0x10000B370, symSize: 0x24 }
  - { offsetInCU: 0xE56D, offset: 0x1EE38, size: 0x8, addend: 0x0, symName: __ZNK3csv6ParserixEj, symObjAddr: 0x1B60, symBinAddr: 0x10000B394, symSize: 0x2C }
  - { offsetInCU: 0xE5A2, offset: 0x1EE6D, size: 0x8, addend: 0x0, symName: __ZNK3csv6Parser8rowCountEv, symObjAddr: 0x1B8C, symBinAddr: 0x10000B3C0, symSize: 0x28 }
  - { offsetInCU: 0xE5C9, offset: 0x1EE94, size: 0x8, addend: 0x0, symName: __ZNK3csv6Parser11columnCountEv, symObjAddr: 0x1BB4, symBinAddr: 0x10000B3E8, symSize: 0x28 }
  - { offsetInCU: 0xE5F0, offset: 0x1EEBB, size: 0x8, addend: 0x0, symName: __ZNK3csv6Parser9getHeaderEv, symObjAddr: 0x1BDC, symBinAddr: 0x10000B410, symSize: 0x3C }
  - { offsetInCU: 0xE617, offset: 0x1EEE2, size: 0x8, addend: 0x0, symName: __ZNSt3__16vectorINS_12basic_stringIcNS_11char_traitsIcEENS_9allocatorIcEEEENS4_IS6_EEEC1ERKS8_, symObjAddr: 0x1C18, symBinAddr: 0x10000B44C, symSize: 0x34 }
  - { offsetInCU: 0xE651, offset: 0x1EF1C, size: 0x8, addend: 0x0, symName: __ZNK3csv6Parser16getHeaderElementEj, symObjAddr: 0x1C4C, symBinAddr: 0x10000B480, symSize: 0x130 }
  - { offsetInCU: 0xE686, offset: 0x1EF51, size: 0x8, addend: 0x0, symName: __ZNKSt3__16vectorINS_12basic_stringIcNS_11char_traitsIcEENS_9allocatorIcEEEENS4_IS6_EEEixB7v160006Em, symObjAddr: 0x1D7C, symBinAddr: 0x10000B5B0, symSize: 0x2C }
  - { offsetInCU: 0xE6BC, offset: 0x1EF87, size: 0x8, addend: 0x0, symName: __ZN3csv6Parser9deleteRowEj, symObjAddr: 0x1DA8, symBinAddr: 0x10000B5DC, symSize: 0x130 }
  - { offsetInCU: 0xE6F1, offset: 0x1EFBC, size: 0x8, addend: 0x0, symName: __ZNKSt3__111__wrap_iterIPPN3csv3RowEEplB7v160006El, symObjAddr: 0x1ED8, symBinAddr: 0x10000B70C, symSize: 0x3C }
  - { offsetInCU: 0xE732, offset: 0x1EFFD, size: 0x8, addend: 0x0, symName: __ZNSt3__16vectorIPN3csv3RowENS_9allocatorIS3_EEE5eraseB7v160006ENS_11__wrap_iterIPKS3_EE, symObjAddr: 0x1F14, symBinAddr: 0x10000B748, symSize: 0xA4 }
  - { offsetInCU: 0xE78F, offset: 0x1F05A, size: 0x8, addend: 0x0, symName: __ZNSt3__111__wrap_iterIPKPN3csv3RowEEC1B7v160006IPS3_EERKNS0_IT_EEPNS_9enable_ifIXsr14is_convertibleIS9_S5_EE5valueEvE4typeE, symObjAddr: 0x1FB8, symBinAddr: 0x10000B7EC, symSize: 0x3C }
  - { offsetInCU: 0xE7DA, offset: 0x1F0A5, size: 0x8, addend: 0x0, symName: __ZN3csv6Parser6addRowEjRKNSt3__16vectorINS1_12basic_stringIcNS1_11char_traitsIcEENS1_9allocatorIcEEEENS6_IS8_EEEE, symObjAddr: 0x1FF4, symBinAddr: 0x10000B828, symSize: 0x188 }
  - { offsetInCU: 0xE847, offset: 0x1F112, size: 0x8, addend: 0x0, symName: __ZNKSt3__16vectorINS_12basic_stringIcNS_11char_traitsIcEENS_9allocatorIcEEEENS4_IS6_EEE5beginB7v160006Ev, symObjAddr: 0x217C, symBinAddr: 0x10000B9B0, symSize: 0x30 }
  - { offsetInCU: 0xE86D, offset: 0x1F138, size: 0x8, addend: 0x0, symName: __ZNKSt3__16vectorINS_12basic_stringIcNS_11char_traitsIcEENS_9allocatorIcEEEENS4_IS6_EEE3endB7v160006Ev, symObjAddr: 0x21E0, symBinAddr: 0x10000BA14, symSize: 0x30 }
  - { offsetInCU: 0xE893, offset: 0x1F15E, size: 0x8, addend: 0x0, symName: __ZNKSt3__111__wrap_iterIPKNS_12basic_stringIcNS_11char_traitsIcEENS_9allocatorIcEEEEEdeB7v160006Ev, symObjAddr: 0x2210, symBinAddr: 0x10000BA44, symSize: 0x18 }
  - { offsetInCU: 0xE8B8, offset: 0x1F183, size: 0x8, addend: 0x0, symName: __ZNSt3__111__wrap_iterIPKNS_12basic_stringIcNS_11char_traitsIcEENS_9allocatorIcEEEEEppB7v160006Ei, symObjAddr: 0x2228, symBinAddr: 0x10000BA5C, symSize: 0x34 }
  - { offsetInCU: 0xE8F6, offset: 0x1F1C1, size: 0x8, addend: 0x0, symName: __ZNSt3__16vectorIPN3csv3RowENS_9allocatorIS3_EEE6insertENS_11__wrap_iterIPKS3_EERS8_, symObjAddr: 0x225C, symBinAddr: 0x10000BA90, symSize: 0x1FC }
  - { offsetInCU: 0xE98B, offset: 0x1F256, size: 0x8, addend: 0x0, symName: __ZNK3csv6Parser4syncEv, symObjAddr: 0x2458, symBinAddr: 0x10000BC8C, symSize: 0x220 }
  - { offsetInCU: 0xEA21, offset: 0x1F2EC, size: 0x8, addend: 0x0, symName: __ZNSt3__114basic_ofstreamIcNS_11char_traitsIcEEEC1Ev, symObjAddr: 0x2678, symBinAddr: 0x10000BEAC, symSize: 0xE8 }
  - { offsetInCU: 0xEA4C, offset: 0x1F317, size: 0x8, addend: 0x0, symName: __ZNKSt3__16vectorIPN3csv3RowENS_9allocatorIS3_EEE5beginB7v160006Ev, symObjAddr: 0x2878, symBinAddr: 0x10000BF94, symSize: 0x30 }
  - { offsetInCU: 0xEA72, offset: 0x1F33D, size: 0x8, addend: 0x0, symName: __ZNKSt3__16vectorIPN3csv3RowENS_9allocatorIS3_EEE3endB7v160006Ev, symObjAddr: 0x28DC, symBinAddr: 0x10000BFF8, symSize: 0x30 }
  - { offsetInCU: 0xEA98, offset: 0x1F363, size: 0x8, addend: 0x0, symName: __ZNKSt3__111__wrap_iterIPKPN3csv3RowEEdeB7v160006Ev, symObjAddr: 0x29DC, symBinAddr: 0x10000C0F8, symSize: 0x18 }
  - { offsetInCU: 0xEABD, offset: 0x1F388, size: 0x8, addend: 0x0, symName: __ZNSt3__111__wrap_iterIPKPN3csv3RowEEppB7v160006Ei, symObjAddr: 0x29F4, symBinAddr: 0x10000C110, symSize: 0x34 }
  - { offsetInCU: 0xEAFB, offset: 0x1F3C6, size: 0x8, addend: 0x0, symName: __ZNSt3__114basic_ofstreamIcNS_11char_traitsIcEEE5closeEv, symObjAddr: 0x2A28, symBinAddr: 0x10000C144, symSize: 0x58 }
  - { offsetInCU: 0xEB26, offset: 0x1F3F1, size: 0x8, addend: 0x0, symName: __ZNSt3__114basic_ofstreamIcNS_11char_traitsIcEEED1Ev, symObjAddr: 0x2A80, symBinAddr: 0x10000C19C, symSize: 0x40 }
  - { offsetInCU: 0xEB52, offset: 0x1F41D, size: 0x8, addend: 0x0, symName: __ZNK3csv6Parser11getFileNameEv, symObjAddr: 0x2AC0, symBinAddr: 0x10000C1DC, symSize: 0x14 }
  - { offsetInCU: 0xEB79, offset: 0x1F444, size: 0x8, addend: 0x0, symName: __ZN3csv3RowC2ERKNSt3__16vectorINS1_12basic_stringIcNS1_11char_traitsIcEENS1_9allocatorIcEEEENS6_IS8_EEEE, symObjAddr: 0x2AD4, symBinAddr: 0x10000C1F0, symSize: 0x40 }
  - { offsetInCU: 0xEBB2, offset: 0x1F47D, size: 0x8, addend: 0x0, symName: __ZN3csv3RowD2Ev, symObjAddr: 0x2B14, symBinAddr: 0x10000C230, symSize: 0x38 }
  - { offsetInCU: 0xEBDD, offset: 0x1F4A8, size: 0x8, addend: 0x0, symName: __ZN3csv3Row3setERKNSt3__112basic_stringIcNS1_11char_traitsIcEENS1_9allocatorIcEEEES9_, symObjAddr: 0x2B4C, symBinAddr: 0x10000C268, symSize: 0x108 }
  - { offsetInCU: 0xEC3C, offset: 0x1F507, size: 0x8, addend: 0x0, symName: __ZNSt3__111__wrap_iterIPKNS_12basic_stringIcNS_11char_traitsIcEENS_9allocatorIcEEEEEC1B7v160006Ev, symObjAddr: 0x2C54, symBinAddr: 0x10000C370, symSize: 0x2C }
  - { offsetInCU: 0xEC65, offset: 0x1F530, size: 0x8, addend: 0x0, symName: __ZNK3csv3RowixEj, symObjAddr: 0x2DC8, symBinAddr: 0x10000C4E4, symSize: 0x130 }
  - { offsetInCU: 0xEC9A, offset: 0x1F565, size: 0x8, addend: 0x0, symName: __ZNK3csv3RowixERKNSt3__112basic_stringIcNS1_11char_traitsIcEENS1_9allocatorIcEEEE, symObjAddr: 0x2EF8, symBinAddr: 0x10000C614, symSize: 0x194 }
  - { offsetInCU: 0xECEB, offset: 0x1F5B6, size: 0x8, addend: 0x0, symName: __ZN3csv5ErrorC2ERKNSt3__112basic_stringIcNS1_11char_traitsIcEENS1_9allocatorIcEEEE, symObjAddr: 0x3128, symBinAddr: 0x10000C844, symSize: 0xA4 }
  - { offsetInCU: 0xED22, offset: 0x1F5ED, size: 0x8, addend: 0x0, symName: __ZN3csv5ErrorD0Ev, symObjAddr: 0x31CC, symBinAddr: 0x10000C8E8, symSize: 0x30 }
  - { offsetInCU: 0xED4D, offset: 0x1F618, size: 0x8, addend: 0x0, symName: __ZN3csv5ErrorD2Ev, symObjAddr: 0x31FC, symBinAddr: 0x10000C918, symSize: 0x2C }
  - { offsetInCU: 0xED78, offset: 0x1F643, size: 0x8, addend: 0x0, symName: __ZNSt3__114basic_ifstreamIcNS_11char_traitsIcEEED2Ev, symObjAddr: 0x3228, symBinAddr: 0x10000C944, symSize: 0x64 }
  - { offsetInCU: 0xEDB0, offset: 0x1F67B, size: 0x8, addend: 0x0, symName: __ZTv0_n24_NSt3__114basic_ifstreamIcNS_11char_traitsIcEEED1Ev, symObjAddr: 0x328C, symBinAddr: 0x10000C9A8, symSize: 0x28 }
  - { offsetInCU: 0xEDC7, offset: 0x1F692, size: 0x8, addend: 0x0, symName: __ZNSt3__119basic_istringstreamIcNS_11char_traitsIcEENS_9allocatorIcEEED2Ev, symObjAddr: 0x32B4, symBinAddr: 0x10000C9D0, symSize: 0x64 }
  - { offsetInCU: 0xEDFF, offset: 0x1F6CA, size: 0x8, addend: 0x0, symName: __ZTv0_n24_NSt3__119basic_istringstreamIcNS_11char_traitsIcEENS_9allocatorIcEEED1Ev, symObjAddr: 0x3318, symBinAddr: 0x10000CA34, symSize: 0x28 }
  - { offsetInCU: 0xEE1B, offset: 0x1F6E6, size: 0x8, addend: 0x0, symName: __ZNSt3__115basic_stringbufIcNS_11char_traitsIcEENS_9allocatorIcEEED1Ev, symObjAddr: 0x3340, symBinAddr: 0x10000CA5C, symSize: 0x2C }
  - { offsetInCU: 0xEE47, offset: 0x1F712, size: 0x8, addend: 0x0, symName: __ZNSt3__115basic_stringbufIcNS_11char_traitsIcEENS_9allocatorIcEEED2Ev, symObjAddr: 0x336C, symBinAddr: 0x10000CA88, symSize: 0x48 }
  - { offsetInCU: 0xEE73, offset: 0x1F73E, size: 0x8, addend: 0x0, symName: __ZNSt3__111__wrap_iterIPPN3csv3RowEEC2B7v160006Ev, symObjAddr: 0x33B4, symBinAddr: 0x10000CAD0, symSize: 0x38 }
  - { offsetInCU: 0xEE9C, offset: 0x1F767, size: 0x8, addend: 0x0, symName: __ZNKSt3__111__wrap_iterIPPN3csv3RowEE4baseB7v160006Ev, symObjAddr: 0x3450, symBinAddr: 0x10000CB60, symSize: 0x18 }
  - { offsetInCU: 0xEEC1, offset: 0x1F78C, size: 0x8, addend: 0x0, symName: __ZNSt3__111__wrap_iterIPPN3csv3RowEEppB7v160006Ev, symObjAddr: 0x3468, symBinAddr: 0x10000CB78, symSize: 0x20 }
  - { offsetInCU: 0xEEE6, offset: 0x1F7B1, size: 0x8, addend: 0x0, symName: __ZNSt3__118basic_stringstreamIcNS_11char_traitsIcEENS_9allocatorIcEEED2Ev, symObjAddr: 0x3488, symBinAddr: 0x10000CB98, symSize: 0x6C }
  - { offsetInCU: 0xEF1E, offset: 0x1F7E9, size: 0x8, addend: 0x0, symName: __ZThn16_NSt3__118basic_stringstreamIcNS_11char_traitsIcEENS_9allocatorIcEEED1Ev, symObjAddr: 0x34F4, symBinAddr: 0x10000CC04, symSize: 0x1C }
  - { offsetInCU: 0xEF35, offset: 0x1F800, size: 0x8, addend: 0x0, symName: __ZTv0_n24_NSt3__118basic_stringstreamIcNS_11char_traitsIcEENS_9allocatorIcEEED1Ev, symObjAddr: 0x3510, symBinAddr: 0x10000CC20, symSize: 0x28 }
  - { offsetInCU: 0xEF4C, offset: 0x1F817, size: 0x8, addend: 0x0, symName: __ZNSt3__111__wrap_iterIPNS_12basic_stringIcNS_11char_traitsIcEENS_9allocatorIcEEEEEC2B7v160006Ev, symObjAddr: 0x3538, symBinAddr: 0x10000CC48, symSize: 0x38 }
  - { offsetInCU: 0xEF75, offset: 0x1F840, size: 0x8, addend: 0x0, symName: __ZNSt3__111__wrap_iterIPNS_12basic_stringIcNS_11char_traitsIcEENS_9allocatorIcEEEEEppB7v160006Ev, symObjAddr: 0x3580, symBinAddr: 0x10000CC90, symSize: 0x20 }
  - { offsetInCU: 0xEF9A, offset: 0x1F865, size: 0x8, addend: 0x0, symName: __ZNKSt3__111__wrap_iterIPNS_12basic_stringIcNS_11char_traitsIcEENS_9allocatorIcEEEEE4baseB7v160006Ev, symObjAddr: 0x35E8, symBinAddr: 0x10000CCF8, symSize: 0x18 }
  - { offsetInCU: 0xEFBF, offset: 0x1F88A, size: 0x8, addend: 0x0, symName: __ZNSt3__111__wrap_iterIPPN3csv3RowEEpLB7v160006El, symObjAddr: 0x3614, symBinAddr: 0x10000CD24, symSize: 0x28 }
  - { offsetInCU: 0xEFF2, offset: 0x1F8BD, size: 0x8, addend: 0x0, symName: __ZNSt3__111__wrap_iterIPKPN3csv3RowEEC2B7v160006IPS3_EERKNS0_IT_EEPNS_9enable_ifIXsr14is_convertibleIS9_S5_EE5valueEvE4typeE, symObjAddr: 0x363C, symBinAddr: 0x10000CD4C, symSize: 0x40 }
  - { offsetInCU: 0xF03D, offset: 0x1F908, size: 0x8, addend: 0x0, symName: __ZNKSt3__111__wrap_iterIPKNS_12basic_stringIcNS_11char_traitsIcEENS_9allocatorIcEEEEE4baseB7v160006Ev, symObjAddr: 0x36C4, symBinAddr: 0x10000CDD4, symSize: 0x18 }
  - { offsetInCU: 0xF062, offset: 0x1F92D, size: 0x8, addend: 0x0, symName: __ZNSt3__111__wrap_iterIPKNS_12basic_stringIcNS_11char_traitsIcEENS_9allocatorIcEEEEEppB7v160006Ev, symObjAddr: 0x36DC, symBinAddr: 0x10000CDEC, symSize: 0x20 }
  - { offsetInCU: 0xF087, offset: 0x1F952, size: 0x8, addend: 0x0, symName: __ZNKSt3__111__wrap_iterIPKPN3csv3RowEE4baseB7v160006Ev, symObjAddr: 0x3744, symBinAddr: 0x10000CE54, symSize: 0x18 }
  - { offsetInCU: 0xF0AC, offset: 0x1F977, size: 0x8, addend: 0x0, symName: __ZNSt3__111__wrap_iterIPKPN3csv3RowEEppB7v160006Ev, symObjAddr: 0x375C, symBinAddr: 0x10000CE6C, symSize: 0x20 }
  - { offsetInCU: 0xF0D1, offset: 0x1F99C, size: 0x8, addend: 0x0, symName: __ZNSt3__114basic_ofstreamIcNS_11char_traitsIcEEED2Ev, symObjAddr: 0x377C, symBinAddr: 0x10000CE8C, symSize: 0x64 }
  - { offsetInCU: 0xF109, offset: 0x1F9D4, size: 0x8, addend: 0x0, symName: __ZTv0_n24_NSt3__114basic_ofstreamIcNS_11char_traitsIcEEED1Ev, symObjAddr: 0x37E0, symBinAddr: 0x10000CEF0, symSize: 0x28 }
  - { offsetInCU: 0xF120, offset: 0x1F9EB, size: 0x8, addend: 0x0, symName: __ZNSt3__111__wrap_iterIPKNS_12basic_stringIcNS_11char_traitsIcEENS_9allocatorIcEEEEEC2B7v160006Ev, symObjAddr: 0x3808, symBinAddr: 0x10000CF18, symSize: 0x38 }
  - { offsetInCU: 0xF14E, offset: 0x1FA19, size: 0x8, addend: 0x0, symName: __ZNSt3__112basic_stringIcNS_11char_traitsIcEENS_9allocatorIcEEEC2B7v160006IDnEEPKc, symObjAddr: 0x3B88, symBinAddr: 0x10000CF60, symSize: 0x60 }
  - { offsetInCU: 0xF18B, offset: 0x1FA56, size: 0x8, addend: 0x0, symName: __ZNSt3__16vectorINS_12basic_stringIcNS_11char_traitsIcEENS_9allocatorIcEEEENS4_IS6_EEEC2B7v160006Ev, symObjAddr: 0x3CF0, symBinAddr: 0x10000CFC0, symSize: 0x58 }
  - { offsetInCU: 0xF1B9, offset: 0x1FA84, size: 0x8, addend: 0x0, symName: __ZNSt3__117__compressed_pairIPNS_12basic_stringIcNS_11char_traitsIcEENS_9allocatorIcEEEENS4_IS6_EEEC1B7v160006IDnNS_18__default_init_tagEEEOT_OT0_, symObjAddr: 0x3D48, symBinAddr: 0x10000D018, symSize: 0x3C }
  - { offsetInCU: 0xF210, offset: 0x1FADB, size: 0x8, addend: 0x0, symName: __ZNSt3__117__compressed_pairIPNS_12basic_stringIcNS_11char_traitsIcEENS_9allocatorIcEEEENS4_IS6_EEEC2B7v160006IDnNS_18__default_init_tagEEEOT_OT0_, symObjAddr: 0x3D94, symBinAddr: 0x10000D064, symSize: 0x40 }
  - { offsetInCU: 0xF267, offset: 0x1FB32, size: 0x8, addend: 0x0, symName: __ZNSt3__122__compressed_pair_elemIPNS_12basic_stringIcNS_11char_traitsIcEENS_9allocatorIcEEEELi0ELb0EEC2B7v160006IDnvEEOT_, symObjAddr: 0x3DD4, symBinAddr: 0x10000D0A4, symSize: 0x1C }
  - { offsetInCU: 0xF2A8, offset: 0x1FB73, size: 0x8, addend: 0x0, symName: __ZNSt3__122__compressed_pair_elemINS_9allocatorINS_12basic_stringIcNS_11char_traitsIcEENS1_IcEEEEEELi1ELb1EEC2B7v160006ENS_18__default_init_tagE, symObjAddr: 0x3DF0, symBinAddr: 0x10000D0C0, symSize: 0x2C }
  - { offsetInCU: 0xF2DC, offset: 0x1FBA7, size: 0x8, addend: 0x0, symName: __ZNSt3__19allocatorINS_12basic_stringIcNS_11char_traitsIcEENS0_IcEEEEEC2B7v160006Ev, symObjAddr: 0x3E1C, symBinAddr: 0x10000D0EC, symSize: 0x2C }
  - { offsetInCU: 0xF305, offset: 0x1FBD0, size: 0x8, addend: 0x0, symName: __ZNSt3__116__non_trivial_ifILb1ENS_9allocatorINS_12basic_stringIcNS_11char_traitsIcEENS1_IcEEEEEEEC2B7v160006Ev, symObjAddr: 0x3E48, symBinAddr: 0x10000D118, symSize: 0x14 }
  - { offsetInCU: 0xF32E, offset: 0x1FBF9, size: 0x8, addend: 0x0, symName: __ZNSt3__16vectorIPN3csv3RowENS_9allocatorIS3_EEEC2B7v160006Ev, symObjAddr: 0x3E5C, symBinAddr: 0x10000D12C, symSize: 0x58 }
  - { offsetInCU: 0xF357, offset: 0x1FC22, size: 0x8, addend: 0x0, symName: __ZNSt3__117__compressed_pairIPPN3csv3RowENS_9allocatorIS3_EEEC1B7v160006IDnNS_18__default_init_tagEEEOT_OT0_, symObjAddr: 0x3EB4, symBinAddr: 0x10000D184, symSize: 0x3C }
  - { offsetInCU: 0xF3AE, offset: 0x1FC79, size: 0x8, addend: 0x0, symName: __ZNSt3__117__compressed_pairIPPN3csv3RowENS_9allocatorIS3_EEEC2B7v160006IDnNS_18__default_init_tagEEEOT_OT0_, symObjAddr: 0x3F00, symBinAddr: 0x10000D1D0, symSize: 0x40 }
  - { offsetInCU: 0xF405, offset: 0x1FCD0, size: 0x8, addend: 0x0, symName: __ZNSt3__122__compressed_pair_elemIPPN3csv3RowELi0ELb0EEC2B7v160006IDnvEEOT_, symObjAddr: 0x3F40, symBinAddr: 0x10000D210, symSize: 0x1C }
  - { offsetInCU: 0xF446, offset: 0x1FD11, size: 0x8, addend: 0x0, symName: __ZNSt3__122__compressed_pair_elemINS_9allocatorIPN3csv3RowEEELi1ELb1EEC2B7v160006ENS_18__default_init_tagE, symObjAddr: 0x3F5C, symBinAddr: 0x10000D22C, symSize: 0x2C }
  - { offsetInCU: 0xF47A, offset: 0x1FD45, size: 0x8, addend: 0x0, symName: __ZNSt3__19allocatorIPN3csv3RowEEC2B7v160006Ev, symObjAddr: 0x3F88, symBinAddr: 0x10000D258, symSize: 0x2C }
  - { offsetInCU: 0xF4A3, offset: 0x1FD6E, size: 0x8, addend: 0x0, symName: __ZNSt3__116__non_trivial_ifILb1ENS_9allocatorIPN3csv3RowEEEEC2B7v160006Ev, symObjAddr: 0x3FB4, symBinAddr: 0x10000D284, symSize: 0x14 }
  - { offsetInCU: 0xF4CC, offset: 0x1FD97, size: 0x8, addend: 0x0, symName: __ZNSt3__16vectorINS_12basic_stringIcNS_11char_traitsIcEENS_9allocatorIcEEEENS4_IS6_EEED2B7v160006Ev, symObjAddr: 0x3FC8, symBinAddr: 0x10000D298, symSize: 0x44 }
  - { offsetInCU: 0xF4F5, offset: 0x1FDC0, size: 0x8, addend: 0x0, symName: __ZNSt3__16vectorINS_12basic_stringIcNS_11char_traitsIcEENS_9allocatorIcEEEENS4_IS6_EEE16__destroy_vectorC1ERS8_, symObjAddr: 0x400C, symBinAddr: 0x10000D2DC, symSize: 0x34 }
  - { offsetInCU: 0xF52D, offset: 0x1FDF8, size: 0x8, addend: 0x0, symName: __ZNSt3__16vectorINS_12basic_stringIcNS_11char_traitsIcEENS_9allocatorIcEEEENS4_IS6_EEE16__destroy_vectorclB7v160006Ev, symObjAddr: 0x4040, symBinAddr: 0x10000D310, symSize: 0x9C }
  - { offsetInCU: 0xF552, offset: 0x1FE1D, size: 0x8, addend: 0x0, symName: __ZNSt3__16vectorINS_12basic_stringIcNS_11char_traitsIcEENS_9allocatorIcEEEENS4_IS6_EEE16__destroy_vectorC2ERS8_, symObjAddr: 0x40DC, symBinAddr: 0x10000D3AC, symSize: 0x20 }
  - { offsetInCU: 0xF58A, offset: 0x1FE55, size: 0x8, addend: 0x0, symName: __ZNKSt3__16vectorINS_12basic_stringIcNS_11char_traitsIcEENS_9allocatorIcEEEENS4_IS6_EEE17__annotate_deleteB7v160006Ev, symObjAddr: 0x40FC, symBinAddr: 0x10000D3CC, symSize: 0xD4 }
  - { offsetInCU: 0xF5AF, offset: 0x1FE7A, size: 0x8, addend: 0x0, symName: __ZNSt3__16vectorINS_12basic_stringIcNS_11char_traitsIcEENS_9allocatorIcEEEENS4_IS6_EEE7__clearB7v160006Ev, symObjAddr: 0x41E0, symBinAddr: 0x10000D4B0, symSize: 0x28 }
  - { offsetInCU: 0xF5D4, offset: 0x1FE9F, size: 0x8, addend: 0x0, symName: __ZNSt3__116allocator_traitsINS_9allocatorINS_12basic_stringIcNS_11char_traitsIcEENS1_IcEEEEEEE10deallocateB7v160006ERS7_PS6_m, symObjAddr: 0x4208, symBinAddr: 0x10000D4D8, symSize: 0x34 }
  - { offsetInCU: 0xF616, offset: 0x1FEE1, size: 0x8, addend: 0x0, symName: __ZNSt3__16vectorINS_12basic_stringIcNS_11char_traitsIcEENS_9allocatorIcEEEENS4_IS6_EEE7__allocB7v160006Ev, symObjAddr: 0x423C, symBinAddr: 0x10000D50C, symSize: 0x28 }
  - { offsetInCU: 0xF63B, offset: 0x1FF06, size: 0x8, addend: 0x0, symName: __ZNKSt3__16vectorINS_12basic_stringIcNS_11char_traitsIcEENS_9allocatorIcEEEENS4_IS6_EEE8capacityB7v160006Ev, symObjAddr: 0x4264, symBinAddr: 0x10000D534, symSize: 0x40 }
  - { offsetInCU: 0xF660, offset: 0x1FF2B, size: 0x8, addend: 0x0, symName: __ZNKSt3__16vectorINS_12basic_stringIcNS_11char_traitsIcEENS_9allocatorIcEEEENS4_IS6_EEE31__annotate_contiguous_containerB7v160006EPKvSA_SA_SA_, symObjAddr: 0x42A4, symBinAddr: 0x10000D574, symSize: 0x20 }
  - { offsetInCU: 0xF6B5, offset: 0x1FF80, size: 0x8, addend: 0x0, symName: __ZNKSt3__16vectorINS_12basic_stringIcNS_11char_traitsIcEENS_9allocatorIcEEEENS4_IS6_EEE4dataB7v160006Ev, symObjAddr: 0x42C4, symBinAddr: 0x10000D594, symSize: 0x28 }
  - { offsetInCU: 0xF6DA, offset: 0x1FFA5, size: 0x8, addend: 0x0, symName: __ZNSt3__16vectorINS_12basic_stringIcNS_11char_traitsIcEENS_9allocatorIcEEEENS4_IS6_EEE22__base_destruct_at_endB7v160006EPS6_, symObjAddr: 0x42EC, symBinAddr: 0x10000D5BC, symSize: 0x8C }
  - { offsetInCU: 0xF71D, offset: 0x1FFE8, size: 0x8, addend: 0x0, symName: __ZNSt3__116allocator_traitsINS_9allocatorINS_12basic_stringIcNS_11char_traitsIcEENS1_IcEEEEEEE7destroyB7v160006IS6_vEEvRS7_PT_, symObjAddr: 0x4378, symBinAddr: 0x10000D648, symSize: 0x2C }
  - { offsetInCU: 0xF75A, offset: 0x20025, size: 0x8, addend: 0x0, symName: __ZNSt3__19allocatorINS_12basic_stringIcNS_11char_traitsIcEENS0_IcEEEEE7destroyB7v160006EPS5_, symObjAddr: 0x43A4, symBinAddr: 0x10000D674, symSize: 0x28 }
  - { offsetInCU: 0xF78D, offset: 0x20058, size: 0x8, addend: 0x0, symName: __ZNSt3__19allocatorINS_12basic_stringIcNS_11char_traitsIcEENS0_IcEEEEE10deallocateB7v160006EPS5_m, symObjAddr: 0x43CC, symBinAddr: 0x10000D69C, symSize: 0x44 }
  - { offsetInCU: 0xF7CE, offset: 0x20099, size: 0x8, addend: 0x0, symName: __ZNSt3__117__compressed_pairIPNS_12basic_stringIcNS_11char_traitsIcEENS_9allocatorIcEEEENS4_IS6_EEE6secondB7v160006Ev, symObjAddr: 0x448C, symBinAddr: 0x10000D6E0, symSize: 0x24 }
  - { offsetInCU: 0xF7F3, offset: 0x200BE, size: 0x8, addend: 0x0, symName: __ZNSt3__122__compressed_pair_elemINS_9allocatorINS_12basic_stringIcNS_11char_traitsIcEENS1_IcEEEEEELi1ELb1EE5__getB7v160006Ev, symObjAddr: 0x44B0, symBinAddr: 0x10000D704, symSize: 0x14 }
  - { offsetInCU: 0xF818, offset: 0x200E3, size: 0x8, addend: 0x0, symName: __ZNKSt3__16vectorINS_12basic_stringIcNS_11char_traitsIcEENS_9allocatorIcEEEENS4_IS6_EEE9__end_capB7v160006Ev, symObjAddr: 0x44C4, symBinAddr: 0x10000D718, symSize: 0x28 }
  - { offsetInCU: 0xF83D, offset: 0x20108, size: 0x8, addend: 0x0, symName: __ZNKSt3__117__compressed_pairIPNS_12basic_stringIcNS_11char_traitsIcEENS_9allocatorIcEEEENS4_IS6_EEE5firstB7v160006Ev, symObjAddr: 0x44EC, symBinAddr: 0x10000D740, symSize: 0x24 }
  - { offsetInCU: 0xF862, offset: 0x2012D, size: 0x8, addend: 0x0, symName: __ZNKSt3__122__compressed_pair_elemIPNS_12basic_stringIcNS_11char_traitsIcEENS_9allocatorIcEEEELi0ELb0EE5__getB7v160006Ev, symObjAddr: 0x4510, symBinAddr: 0x10000D764, symSize: 0x14 }
  - { offsetInCU: 0xF887, offset: 0x20152, size: 0x8, addend: 0x0, symName: __ZNSt3__16vectorIPN3csv3RowENS_9allocatorIS3_EEED2B7v160006Ev, symObjAddr: 0x4524, symBinAddr: 0x10000D778, symSize: 0x44 }
  - { offsetInCU: 0xF8B0, offset: 0x2017B, size: 0x8, addend: 0x0, symName: __ZNSt3__16vectorIPN3csv3RowENS_9allocatorIS3_EEE16__destroy_vectorC1ERS6_, symObjAddr: 0x4568, symBinAddr: 0x10000D7BC, symSize: 0x34 }
  - { offsetInCU: 0xF8E8, offset: 0x201B3, size: 0x8, addend: 0x0, symName: __ZNSt3__16vectorIPN3csv3RowENS_9allocatorIS3_EEE16__destroy_vectorclB7v160006Ev, symObjAddr: 0x459C, symBinAddr: 0x10000D7F0, symSize: 0x9C }
  - { offsetInCU: 0xF90D, offset: 0x201D8, size: 0x8, addend: 0x0, symName: __ZNSt3__16vectorIPN3csv3RowENS_9allocatorIS3_EEE16__destroy_vectorC2ERS6_, symObjAddr: 0x4638, symBinAddr: 0x10000D88C, symSize: 0x20 }
  - { offsetInCU: 0xF945, offset: 0x20210, size: 0x8, addend: 0x0, symName: __ZNKSt3__16vectorIPN3csv3RowENS_9allocatorIS3_EEE17__annotate_deleteB7v160006Ev, symObjAddr: 0x4658, symBinAddr: 0x10000D8AC, symSize: 0xB8 }
  - { offsetInCU: 0xF96A, offset: 0x20235, size: 0x8, addend: 0x0, symName: __ZNSt3__16vectorIPN3csv3RowENS_9allocatorIS3_EEE7__clearB7v160006Ev, symObjAddr: 0x4720, symBinAddr: 0x10000D974, symSize: 0x28 }
  - { offsetInCU: 0xF98F, offset: 0x2025A, size: 0x8, addend: 0x0, symName: __ZNSt3__116allocator_traitsINS_9allocatorIPN3csv3RowEEEE10deallocateB7v160006ERS5_PS4_m, symObjAddr: 0x4748, symBinAddr: 0x10000D99C, symSize: 0x34 }
  - { offsetInCU: 0xF9D1, offset: 0x2029C, size: 0x8, addend: 0x0, symName: __ZNSt3__16vectorIPN3csv3RowENS_9allocatorIS3_EEE7__allocB7v160006Ev, symObjAddr: 0x477C, symBinAddr: 0x10000D9D0, symSize: 0x28 }
  - { offsetInCU: 0xF9F6, offset: 0x202C1, size: 0x8, addend: 0x0, symName: __ZNKSt3__16vectorIPN3csv3RowENS_9allocatorIS3_EEE8capacityB7v160006Ev, symObjAddr: 0x47A4, symBinAddr: 0x10000D9F8, symSize: 0x40 }
  - { offsetInCU: 0xFA1B, offset: 0x202E6, size: 0x8, addend: 0x0, symName: __ZNKSt3__16vectorIPN3csv3RowENS_9allocatorIS3_EEE31__annotate_contiguous_containerB7v160006EPKvS8_S8_S8_, symObjAddr: 0x47E4, symBinAddr: 0x10000DA38, symSize: 0x20 }
  - { offsetInCU: 0xFA70, offset: 0x2033B, size: 0x8, addend: 0x0, symName: __ZNKSt3__16vectorIPN3csv3RowENS_9allocatorIS3_EEE4dataB7v160006Ev, symObjAddr: 0x4804, symBinAddr: 0x10000DA58, symSize: 0x28 }
  - { offsetInCU: 0xFA95, offset: 0x20360, size: 0x8, addend: 0x0, symName: __ZNSt3__16vectorIPN3csv3RowENS_9allocatorIS3_EEE22__base_destruct_at_endB7v160006EPS3_, symObjAddr: 0x4840, symBinAddr: 0x10000DA94, symSize: 0x8C }
  - { offsetInCU: 0xFAD8, offset: 0x203A3, size: 0x8, addend: 0x0, symName: __ZNSt3__116allocator_traitsINS_9allocatorIPN3csv3RowEEEE7destroyB7v160006IS4_vEEvRS5_PT_, symObjAddr: 0x48CC, symBinAddr: 0x10000DB20, symSize: 0x2C }
  - { offsetInCU: 0xFB15, offset: 0x203E0, size: 0x8, addend: 0x0, symName: __ZNSt3__19allocatorIPN3csv3RowEE7destroyB7v160006EPS3_, symObjAddr: 0x48F8, symBinAddr: 0x10000DB4C, symSize: 0x14 }
  - { offsetInCU: 0xFB48, offset: 0x20413, size: 0x8, addend: 0x0, symName: __ZNSt3__19allocatorIPN3csv3RowEE10deallocateB7v160006EPS3_m, symObjAddr: 0x490C, symBinAddr: 0x10000DB60, symSize: 0x40 }
  - { offsetInCU: 0xFB89, offset: 0x20454, size: 0x8, addend: 0x0, symName: __ZNSt3__117__compressed_pairIPPN3csv3RowENS_9allocatorIS3_EEE6secondB7v160006Ev, symObjAddr: 0x494C, symBinAddr: 0x10000DBA0, symSize: 0x24 }
  - { offsetInCU: 0xFBAE, offset: 0x20479, size: 0x8, addend: 0x0, symName: __ZNSt3__122__compressed_pair_elemINS_9allocatorIPN3csv3RowEEELi1ELb1EE5__getB7v160006Ev, symObjAddr: 0x4970, symBinAddr: 0x10000DBC4, symSize: 0x14 }
  - { offsetInCU: 0xFBD3, offset: 0x2049E, size: 0x8, addend: 0x0, symName: __ZNKSt3__16vectorIPN3csv3RowENS_9allocatorIS3_EEE9__end_capB7v160006Ev, symObjAddr: 0x4984, symBinAddr: 0x10000DBD8, symSize: 0x28 }
  - { offsetInCU: 0xFBF8, offset: 0x204C3, size: 0x8, addend: 0x0, symName: __ZNKSt3__117__compressed_pairIPPN3csv3RowENS_9allocatorIS3_EEE5firstB7v160006Ev, symObjAddr: 0x49AC, symBinAddr: 0x10000DC00, symSize: 0x24 }
  - { offsetInCU: 0xFC1D, offset: 0x204E8, size: 0x8, addend: 0x0, symName: __ZNKSt3__122__compressed_pair_elemIPPN3csv3RowELi0ELb0EE5__getB7v160006Ev, symObjAddr: 0x49D0, symBinAddr: 0x10000DC24, symSize: 0x14 }
  - { offsetInCU: 0xFC42, offset: 0x2050D, size: 0x8, addend: 0x0, symName: __ZNSt3__19basic_iosIcNS_11char_traitsIcEEEC2B7v160006Ev, symObjAddr: 0x49E4, symBinAddr: 0x10000DC38, symSize: 0x44 }
  - { offsetInCU: 0xFC6B, offset: 0x20536, size: 0x8, addend: 0x0, symName: __ZNSt3__113basic_istreamIcNS_11char_traitsIcEEEC2B7v160006EPNS_15basic_streambufIcS2_EE, symObjAddr: 0x4A28, symBinAddr: 0x10000DC7C, symSize: 0x64 }
  - { offsetInCU: 0xFCAE, offset: 0x20579, size: 0x8, addend: 0x0, symName: __ZNSt3__18ios_baseC2B7v160006Ev, symObjAddr: 0x4AB8, symBinAddr: 0x10000DCE0, symSize: 0x24 }
  - { offsetInCU: 0xFCD7, offset: 0x205A2, size: 0x8, addend: 0x0, symName: __ZNSt3__19basic_iosIcNS_11char_traitsIcEEE4initB7v160006EPNS_15basic_streambufIcS2_EE, symObjAddr: 0x4ADC, symBinAddr: 0x10000DD04, symSize: 0x44 }
  - { offsetInCU: 0xFD0C, offset: 0x205D7, size: 0x8, addend: 0x0, symName: __ZNKSt3__113basic_filebufIcNS_11char_traitsIcEEE7is_openEv, symObjAddr: 0x4B5C, symBinAddr: 0x10000DD48, symSize: 0x24 }
  - { offsetInCU: 0xFD33, offset: 0x205FE, size: 0x8, addend: 0x0, symName: __ZNKSt3__18ios_base4goodB7v160006Ev, symObjAddr: 0x4B80, symBinAddr: 0x10000DD6C, symSize: 0x24 }
  - { offsetInCU: 0xFD5F, offset: 0x2062A, size: 0x8, addend: 0x0, symName: __ZNSt3__16vectorINS_12basic_stringIcNS_11char_traitsIcEENS_9allocatorIcEEEENS4_IS6_EEE9__end_capB7v160006Ev, symObjAddr: 0x4D38, symBinAddr: 0x10000DE3C, symSize: 0x28 }
  - { offsetInCU: 0xFD84, offset: 0x2064F, size: 0x8, addend: 0x0, symName: __ZNSt3__16vectorINS_12basic_stringIcNS_11char_traitsIcEENS_9allocatorIcEEEENS4_IS6_EEE22__construct_one_at_endB7v160006IJRKS6_EEEvDpOT_, symObjAddr: 0x4D60, symBinAddr: 0x10000DE64, symSize: 0x90 }
  - { offsetInCU: 0xFDD2, offset: 0x2069D, size: 0x8, addend: 0x0, symName: __ZNSt3__16vectorINS_12basic_stringIcNS_11char_traitsIcEENS_9allocatorIcEEEENS4_IS6_EEE21__push_back_slow_pathIRKS6_EEvOT_, symObjAddr: 0x4DF0, symBinAddr: 0x10000DEF4, symSize: 0xD8 }
  - { offsetInCU: 0xFE2E, offset: 0x206F9, size: 0x8, addend: 0x0, symName: __ZNSt3__117__compressed_pairIPNS_12basic_stringIcNS_11char_traitsIcEENS_9allocatorIcEEEENS4_IS6_EEE5firstB7v160006Ev, symObjAddr: 0x4EC8, symBinAddr: 0x10000DFCC, symSize: 0x24 }
  - { offsetInCU: 0xFE53, offset: 0x2071E, size: 0x8, addend: 0x0, symName: __ZNSt3__122__compressed_pair_elemIPNS_12basic_stringIcNS_11char_traitsIcEENS_9allocatorIcEEEELi0ELb0EE5__getB7v160006Ev, symObjAddr: 0x4EEC, symBinAddr: 0x10000DFF0, symSize: 0x14 }
  - { offsetInCU: 0xFE91, offset: 0x2075C, size: 0x8, addend: 0x0, symName: __ZNSt3__16vectorINS_12basic_stringIcNS_11char_traitsIcEENS_9allocatorIcEEEENS4_IS6_EEE21_ConstructTransactionC1B7v160006ERS8_m, symObjAddr: 0x4F00, symBinAddr: 0x10000E004, symSize: 0x3C }
  - { offsetInCU: 0xFED8, offset: 0x207A3, size: 0x8, addend: 0x0, symName: __ZNSt3__116allocator_traitsINS_9allocatorINS_12basic_stringIcNS_11char_traitsIcEENS1_IcEEEEEEE9constructB7v160006IS6_JRKS6_EvEEvRS7_PT_DpOT0_, symObjAddr: 0x4F3C, symBinAddr: 0x10000E040, symSize: 0x34 }
  - { offsetInCU: 0xFF2F, offset: 0x207FA, size: 0x8, addend: 0x0, symName: __ZNSt3__16vectorINS_12basic_stringIcNS_11char_traitsIcEENS_9allocatorIcEEEENS4_IS6_EEE21_ConstructTransactionD1B7v160006Ev, symObjAddr: 0x4F70, symBinAddr: 0x10000E074, symSize: 0x2C }
  - { offsetInCU: 0xFF58, offset: 0x20823, size: 0x8, addend: 0x0, symName: __ZNSt3__16vectorINS_12basic_stringIcNS_11char_traitsIcEENS_9allocatorIcEEEENS4_IS6_EEE21_ConstructTransactionC2B7v160006ERS8_m, symObjAddr: 0x4F9C, symBinAddr: 0x10000E0A0, symSize: 0x4C }
  - { offsetInCU: 0xFF9F, offset: 0x2086A, size: 0x8, addend: 0x0, symName: __ZNSt3__19allocatorINS_12basic_stringIcNS_11char_traitsIcEENS0_IcEEEEE9constructB7v160006IS5_JRKS5_EEEvPT_DpOT0_, symObjAddr: 0x4FE8, symBinAddr: 0x10000E0EC, symSize: 0x30 }
  - { offsetInCU: 0xFFF4, offset: 0x208BF, size: 0x8, addend: 0x0, symName: __ZNSt3__16vectorINS_12basic_stringIcNS_11char_traitsIcEENS_9allocatorIcEEEENS4_IS6_EEE21_ConstructTransactionD2B7v160006Ev, symObjAddr: 0x5018, symBinAddr: 0x10000E11C, symSize: 0x20 }
  - { offsetInCU: 0x1001D, offset: 0x208E8, size: 0x8, addend: 0x0, symName: __ZNKSt3__16vectorINS_12basic_stringIcNS_11char_traitsIcEENS_9allocatorIcEEEENS4_IS6_EEE11__recommendB7v160006Em, symObjAddr: 0x5038, symBinAddr: 0x10000E13C, symSize: 0xB4 }
  - { offsetInCU: 0x10070, offset: 0x2093B, size: 0x8, addend: 0x0, symName: __ZNSt3__114__split_bufferINS_12basic_stringIcNS_11char_traitsIcEENS_9allocatorIcEEEERNS4_IS6_EEEC1EmmS8_, symObjAddr: 0x50EC, symBinAddr: 0x10000E1F0, symSize: 0x44 }
  - { offsetInCU: 0x100C5, offset: 0x20990, size: 0x8, addend: 0x0, symName: __ZNSt3__114__split_bufferINS_12basic_stringIcNS_11char_traitsIcEENS_9allocatorIcEEEERNS4_IS6_EEED1Ev, symObjAddr: 0x5248, symBinAddr: 0x10000E34C, symSize: 0x2C }
  - { offsetInCU: 0x100F0, offset: 0x209BB, size: 0x8, addend: 0x0, symName: __ZNKSt3__16vectorINS_12basic_stringIcNS_11char_traitsIcEENS_9allocatorIcEEEENS4_IS6_EEE8max_sizeEv, symObjAddr: 0x5274, symBinAddr: 0x10000E378, symSize: 0x60 }
  - { offsetInCU: 0x10116, offset: 0x209E1, size: 0x8, addend: 0x0, symName: __ZNKSt3__16vectorINS_12basic_stringIcNS_11char_traitsIcEENS_9allocatorIcEEEENS4_IS6_EEE20__throw_length_errorB7v160006Ev, symObjAddr: 0x52D4, symBinAddr: 0x10000E3D8, symSize: 0x1C }
  - { offsetInCU: 0x10145, offset: 0x20A10, size: 0x8, addend: 0x0, symName: __ZNSt3__116allocator_traitsINS_9allocatorINS_12basic_stringIcNS_11char_traitsIcEENS1_IcEEEEEEE8max_sizeB7v160006IS7_vEEmRKS7_, symObjAddr: 0x5348, symBinAddr: 0x10000E3F4, symSize: 0x24 }
  - { offsetInCU: 0x10173, offset: 0x20A3E, size: 0x8, addend: 0x0, symName: __ZNKSt3__16vectorINS_12basic_stringIcNS_11char_traitsIcEENS_9allocatorIcEEEENS4_IS6_EEE7__allocB7v160006Ev, symObjAddr: 0x536C, symBinAddr: 0x10000E418, symSize: 0x28 }
  - { offsetInCU: 0x10198, offset: 0x20A63, size: 0x8, addend: 0x0, symName: __ZNKSt3__19allocatorINS_12basic_stringIcNS_11char_traitsIcEENS0_IcEEEEE8max_sizeB7v160006Ev, symObjAddr: 0x5430, symBinAddr: 0x10000E440, symSize: 0x18 }
  - { offsetInCU: 0x101BD, offset: 0x20A88, size: 0x8, addend: 0x0, symName: __ZNKSt3__117__compressed_pairIPNS_12basic_stringIcNS_11char_traitsIcEENS_9allocatorIcEEEENS4_IS6_EEE6secondB7v160006Ev, symObjAddr: 0x5448, symBinAddr: 0x10000E458, symSize: 0x24 }
  - { offsetInCU: 0x101E2, offset: 0x20AAD, size: 0x8, addend: 0x0, symName: __ZNKSt3__122__compressed_pair_elemINS_9allocatorINS_12basic_stringIcNS_11char_traitsIcEENS1_IcEEEEEELi1ELb1EE5__getB7v160006Ev, symObjAddr: 0x546C, symBinAddr: 0x10000E47C, symSize: 0x14 }
  - { offsetInCU: 0x10207, offset: 0x20AD2, size: 0x8, addend: 0x0, symName: __ZNSt3__114__split_bufferINS_12basic_stringIcNS_11char_traitsIcEENS_9allocatorIcEEEERNS4_IS6_EEEC2EmmS8_, symObjAddr: 0x55C0, symBinAddr: 0x10000E490, symSize: 0xE0 }
  - { offsetInCU: 0x10279, offset: 0x20B44, size: 0x8, addend: 0x0, symName: __ZNSt3__117__compressed_pairIPNS_12basic_stringIcNS_11char_traitsIcEENS_9allocatorIcEEEERNS4_IS6_EEEC1B7v160006IDnS9_EEOT_OT0_, symObjAddr: 0x56A0, symBinAddr: 0x10000E570, symSize: 0x3C }
  - { offsetInCU: 0x102D0, offset: 0x20B9B, size: 0x8, addend: 0x0, symName: __ZNSt3__114__split_bufferINS_12basic_stringIcNS_11char_traitsIcEENS_9allocatorIcEEEERNS4_IS6_EEE7__allocB7v160006Ev, symObjAddr: 0x571C, symBinAddr: 0x10000E5EC, symSize: 0x28 }
  - { offsetInCU: 0x102F5, offset: 0x20BC0, size: 0x8, addend: 0x0, symName: __ZNSt3__114__split_bufferINS_12basic_stringIcNS_11char_traitsIcEENS_9allocatorIcEEEERNS4_IS6_EEE9__end_capB7v160006Ev, symObjAddr: 0x5744, symBinAddr: 0x10000E614, symSize: 0x28 }
  - { offsetInCU: 0x1031A, offset: 0x20BE5, size: 0x8, addend: 0x0, symName: __ZNSt3__117__compressed_pairIPNS_12basic_stringIcNS_11char_traitsIcEENS_9allocatorIcEEEERNS4_IS6_EEEC2B7v160006IDnS9_EEOT_OT0_, symObjAddr: 0x576C, symBinAddr: 0x10000E63C, symSize: 0x48 }
  - { offsetInCU: 0x10371, offset: 0x20C3C, size: 0x8, addend: 0x0, symName: __ZNSt3__122__compressed_pair_elemIRNS_9allocatorINS_12basic_stringIcNS_11char_traitsIcEENS1_IcEEEEEELi1ELb0EEC2B7v160006IS8_vEEOT_, symObjAddr: 0x57B4, symBinAddr: 0x10000E684, symSize: 0x20 }
  - { offsetInCU: 0x103B2, offset: 0x20C7D, size: 0x8, addend: 0x0, symName: __ZNSt3__19allocatorINS_12basic_stringIcNS_11char_traitsIcEENS0_IcEEEEE8allocateB7v160006Em, symObjAddr: 0x57D4, symBinAddr: 0x10000E6A4, symSize: 0x5C }
  - { offsetInCU: 0x103E5, offset: 0x20CB0, size: 0x8, addend: 0x0, symName: __ZNSt3__117__compressed_pairIPNS_12basic_stringIcNS_11char_traitsIcEENS_9allocatorIcEEEERNS4_IS6_EEE6secondB7v160006Ev, symObjAddr: 0x58B0, symBinAddr: 0x10000E700, symSize: 0x28 }
  - { offsetInCU: 0x1040A, offset: 0x20CD5, size: 0x8, addend: 0x0, symName: __ZNSt3__122__compressed_pair_elemIRNS_9allocatorINS_12basic_stringIcNS_11char_traitsIcEENS1_IcEEEEEELi1ELb0EE5__getB7v160006Ev, symObjAddr: 0x58D8, symBinAddr: 0x10000E728, symSize: 0x18 }
  - { offsetInCU: 0x1042F, offset: 0x20CFA, size: 0x8, addend: 0x0, symName: __ZNSt3__117__compressed_pairIPNS_12basic_stringIcNS_11char_traitsIcEENS_9allocatorIcEEEERNS4_IS6_EEE5firstB7v160006Ev, symObjAddr: 0x58F0, symBinAddr: 0x10000E740, symSize: 0x24 }
  - { offsetInCU: 0x10454, offset: 0x20D1F, size: 0x8, addend: 0x0, symName: __ZNSt3__116reverse_iteratorIPNS_12basic_stringIcNS_11char_traitsIcEENS_9allocatorIcEEEEEC1B7v160006ES7_, symObjAddr: 0x5A40, symBinAddr: 0x10000E890, symSize: 0x34 }
  - { offsetInCU: 0x1048B, offset: 0x20D56, size: 0x8, addend: 0x0, symName: __ZNKSt3__116reverse_iteratorIPNS_12basic_stringIcNS_11char_traitsIcEENS_9allocatorIcEEEEE4baseB7v160006Ev, symObjAddr: 0x5A74, symBinAddr: 0x10000E8C4, symSize: 0x18 }
  - { offsetInCU: 0x104B0, offset: 0x20D7B, size: 0x8, addend: 0x0, symName: __ZNKSt3__16vectorINS_12basic_stringIcNS_11char_traitsIcEENS_9allocatorIcEEEENS4_IS6_EEE14__annotate_newB7v160006Em, symObjAddr: 0x5AC8, symBinAddr: 0x10000E918, symSize: 0xC8 }
  - { offsetInCU: 0x104E4, offset: 0x20DAF, size: 0x8, addend: 0x0, symName: __ZNSt3__129_AllocatorDestroyRangeReverseINS_9allocatorINS_12basic_stringIcNS_11char_traitsIcEENS1_IcEEEEEENS_16reverse_iteratorIPS6_EEEC1B7v160006ERS7_RSA_SD_, symObjAddr: 0x5BEC, symBinAddr: 0x10000EA3C, symSize: 0x44 }
  - { offsetInCU: 0x1053F, offset: 0x20E0A, size: 0x8, addend: 0x0, symName: __ZNSt3__116allocator_traitsINS_9allocatorINS_12basic_stringIcNS_11char_traitsIcEENS1_IcEEEEEEE9constructB7v160006IS6_JS6_EvEEvRS7_PT_DpOT0_, symObjAddr: 0x5C78, symBinAddr: 0x10000EAC8, symSize: 0x34 }
  - { offsetInCU: 0x10596, offset: 0x20E61, size: 0x8, addend: 0x0, symName: __ZNKSt3__116reverse_iteratorIPNS_12basic_stringIcNS_11char_traitsIcEENS_9allocatorIcEEEEEdeB7v160006Ev, symObjAddr: 0x5CD0, symBinAddr: 0x10000EB20, symSize: 0x28 }
  - { offsetInCU: 0x105C9, offset: 0x20E94, size: 0x8, addend: 0x0, symName: __ZNSt3__116reverse_iteratorIPNS_12basic_stringIcNS_11char_traitsIcEENS_9allocatorIcEEEEEppB7v160006Ev, symObjAddr: 0x5CF8, symBinAddr: 0x10000EB48, symSize: 0x20 }
  - { offsetInCU: 0x105EE, offset: 0x20EB9, size: 0x8, addend: 0x0, symName: __ZNSt3__128__exception_guard_exceptionsINS_29_AllocatorDestroyRangeReverseINS_9allocatorINS_12basic_stringIcNS_11char_traitsIcEENS2_IcEEEEEENS_16reverse_iteratorIPS7_EEEEE10__completeB7v160006Ev, symObjAddr: 0x5D18, symBinAddr: 0x10000EB68, symSize: 0x1C }
  - { offsetInCU: 0x10613, offset: 0x20EDE, size: 0x8, addend: 0x0, symName: __ZNSt3__128__exception_guard_exceptionsINS_29_AllocatorDestroyRangeReverseINS_9allocatorINS_12basic_stringIcNS_11char_traitsIcEENS2_IcEEEEEENS_16reverse_iteratorIPS7_EEEEED1B7v160006Ev, symObjAddr: 0x5D34, symBinAddr: 0x10000EB84, symSize: 0x2C }
  - { offsetInCU: 0x1063C, offset: 0x20F07, size: 0x8, addend: 0x0, symName: __ZNSt3__128__exception_guard_exceptionsINS_29_AllocatorDestroyRangeReverseINS_9allocatorINS_12basic_stringIcNS_11char_traitsIcEENS2_IcEEEEEENS_16reverse_iteratorIPS7_EEEEEC1B7v160006ESC_, symObjAddr: 0x5D60, symBinAddr: 0x10000EBB0, symSize: 0x34 }
  - { offsetInCU: 0x10674, offset: 0x20F3F, size: 0x8, addend: 0x0, symName: __ZNSt3__128__exception_guard_exceptionsINS_29_AllocatorDestroyRangeReverseINS_9allocatorINS_12basic_stringIcNS_11char_traitsIcEENS2_IcEEEEEENS_16reverse_iteratorIPS7_EEEEEC2B7v160006ESC_, symObjAddr: 0x5D94, symBinAddr: 0x10000EBE4, symSize: 0x30 }
  - { offsetInCU: 0x106AC, offset: 0x20F77, size: 0x8, addend: 0x0, symName: __ZNSt3__129_AllocatorDestroyRangeReverseINS_9allocatorINS_12basic_stringIcNS_11char_traitsIcEENS1_IcEEEEEENS_16reverse_iteratorIPS6_EEEC2B7v160006ERS7_RSA_SD_, symObjAddr: 0x5DC4, symBinAddr: 0x10000EC14, symSize: 0x38 }
  - { offsetInCU: 0x10702, offset: 0x20FCD, size: 0x8, addend: 0x0, symName: __ZNSt3__19allocatorINS_12basic_stringIcNS_11char_traitsIcEENS0_IcEEEEE9constructB7v160006IS5_JS5_EEEvPT_DpOT0_, symObjAddr: 0x5DFC, symBinAddr: 0x10000EC4C, symSize: 0x30 }
  - { offsetInCU: 0x1075C, offset: 0x21027, size: 0x8, addend: 0x0, symName: __ZNSt3__119__to_address_helperINS_16reverse_iteratorIPNS_12basic_stringIcNS_11char_traitsIcEENS_9allocatorIcEEEEEEvE6__callB7v160006ERKS9_, symObjAddr: 0x5EF4, symBinAddr: 0x10000EC7C, symSize: 0x38 }
  - { offsetInCU: 0x1077F, offset: 0x2104A, size: 0x8, addend: 0x0, symName: __ZNKSt3__116reverse_iteratorIPNS_12basic_stringIcNS_11char_traitsIcEENS_9allocatorIcEEEEEptB7v160006Ev, symObjAddr: 0x5F2C, symBinAddr: 0x10000ECB4, symSize: 0x24 }
  - { offsetInCU: 0x107A4, offset: 0x2106F, size: 0x8, addend: 0x0, symName: __ZNSt3__128__exception_guard_exceptionsINS_29_AllocatorDestroyRangeReverseINS_9allocatorINS_12basic_stringIcNS_11char_traitsIcEENS2_IcEEEEEENS_16reverse_iteratorIPS7_EEEEED2B7v160006Ev, symObjAddr: 0x5F50, symBinAddr: 0x10000ECD8, symSize: 0x50 }
  - { offsetInCU: 0x107CD, offset: 0x21098, size: 0x8, addend: 0x0, symName: __ZNKSt3__129_AllocatorDestroyRangeReverseINS_9allocatorINS_12basic_stringIcNS_11char_traitsIcEENS1_IcEEEEEENS_16reverse_iteratorIPS6_EEEclB7v160006Ev, symObjAddr: 0x5FA0, symBinAddr: 0x10000ED28, symSize: 0xB4 }
  - { offsetInCU: 0x107F3, offset: 0x210BE, size: 0x8, addend: 0x0, symName: __ZNSt3__116reverse_iteratorINS0_IPNS_12basic_stringIcNS_11char_traitsIcEENS_9allocatorIcEEEEEEEC1B7v160006ES8_, symObjAddr: 0x60C4, symBinAddr: 0x10000EE4C, symSize: 0x3C }
  - { offsetInCU: 0x1082A, offset: 0x210F5, size: 0x8, addend: 0x0, symName: __ZNSt3__116reverse_iteratorINS0_IPNS_12basic_stringIcNS_11char_traitsIcEENS_9allocatorIcEEEEEEEppB7v160006Ev, symObjAddr: 0x6184, symBinAddr: 0x10000EF0C, symSize: 0x30 }
  - { offsetInCU: 0x1084F, offset: 0x2111A, size: 0x8, addend: 0x0, symName: __ZNKSt3__116reverse_iteratorINS0_IPNS_12basic_stringIcNS_11char_traitsIcEENS_9allocatorIcEEEEEEE4baseB7v160006Ev, symObjAddr: 0x61B4, symBinAddr: 0x10000EF3C, symSize: 0x24 }
  - { offsetInCU: 0x10879, offset: 0x21144, size: 0x8, addend: 0x0, symName: __ZNSt3__119__to_address_helperINS_16reverse_iteratorINS1_IPNS_12basic_stringIcNS_11char_traitsIcEENS_9allocatorIcEEEEEEEEvE6__callB7v160006ERKSA_, symObjAddr: 0x61D8, symBinAddr: 0x10000EF60, symSize: 0x38 }
  - { offsetInCU: 0x1089C, offset: 0x21167, size: 0x8, addend: 0x0, symName: __ZNKSt3__116reverse_iteratorINS0_IPNS_12basic_stringIcNS_11char_traitsIcEENS_9allocatorIcEEEEEEEptB7v160006Ev, symObjAddr: 0x6210, symBinAddr: 0x10000EF98, symSize: 0x24 }
  - { offsetInCU: 0x108C1, offset: 0x2118C, size: 0x8, addend: 0x0, symName: __ZNKSt3__116reverse_iteratorINS0_IPNS_12basic_stringIcNS_11char_traitsIcEENS_9allocatorIcEEEEEEEdeB7v160006Ev, symObjAddr: 0x6234, symBinAddr: 0x10000EFBC, symSize: 0x34 }
  - { offsetInCU: 0x108F4, offset: 0x211BF, size: 0x8, addend: 0x0, symName: __ZNSt3__116reverse_iteratorIPNS_12basic_stringIcNS_11char_traitsIcEENS_9allocatorIcEEEEEmmB7v160006Ev, symObjAddr: 0x6268, symBinAddr: 0x10000EFF0, symSize: 0x20 }
  - { offsetInCU: 0x10919, offset: 0x211E4, size: 0x8, addend: 0x0, symName: __ZNSt3__116reverse_iteratorINS0_IPNS_12basic_stringIcNS_11char_traitsIcEENS_9allocatorIcEEEEEEEC2B7v160006ES8_, symObjAddr: 0x6288, symBinAddr: 0x10000F010, symSize: 0x2C }
  - { offsetInCU: 0x10950, offset: 0x2121B, size: 0x8, addend: 0x0, symName: __ZNSt3__116reverse_iteratorIPNS_12basic_stringIcNS_11char_traitsIcEENS_9allocatorIcEEEEEC2B7v160006ES7_, symObjAddr: 0x62B4, symBinAddr: 0x10000F03C, symSize: 0x28 }
  - { offsetInCU: 0x10987, offset: 0x21252, size: 0x8, addend: 0x0, symName: __ZNSt3__114__split_bufferINS_12basic_stringIcNS_11char_traitsIcEENS_9allocatorIcEEEERNS4_IS6_EEED2Ev, symObjAddr: 0x62DC, symBinAddr: 0x10000F064, symSize: 0x8C }
  - { offsetInCU: 0x109B2, offset: 0x2127D, size: 0x8, addend: 0x0, symName: __ZNSt3__114__split_bufferINS_12basic_stringIcNS_11char_traitsIcEENS_9allocatorIcEEEERNS4_IS6_EEE5clearB7v160006Ev, symObjAddr: 0x6368, symBinAddr: 0x10000F0F0, symSize: 0x28 }
  - { offsetInCU: 0x109D7, offset: 0x212A2, size: 0x8, addend: 0x0, symName: __ZNKSt3__114__split_bufferINS_12basic_stringIcNS_11char_traitsIcEENS_9allocatorIcEEEERNS4_IS6_EEE8capacityB7v160006Ev, symObjAddr: 0x6390, symBinAddr: 0x10000F118, symSize: 0x40 }
  - { offsetInCU: 0x109FC, offset: 0x212C7, size: 0x8, addend: 0x0, symName: __ZNSt3__114__split_bufferINS_12basic_stringIcNS_11char_traitsIcEENS_9allocatorIcEEEERNS4_IS6_EEE17__destruct_at_endB7v160006EPS6_, symObjAddr: 0x63D0, symBinAddr: 0x10000F158, symSize: 0x2C }
  - { offsetInCU: 0x10A2F, offset: 0x212FA, size: 0x8, addend: 0x0, symName: __ZNSt3__114__split_bufferINS_12basic_stringIcNS_11char_traitsIcEENS_9allocatorIcEEEERNS4_IS6_EEE17__destruct_at_endB7v160006EPS6_NS_17integral_constantIbLb0EEE, symObjAddr: 0x63FC, symBinAddr: 0x10000F184, symSize: 0x80 }
  - { offsetInCU: 0x10A6E, offset: 0x21339, size: 0x8, addend: 0x0, symName: __ZNKSt3__114__split_bufferINS_12basic_stringIcNS_11char_traitsIcEENS_9allocatorIcEEEERNS4_IS6_EEE9__end_capB7v160006Ev, symObjAddr: 0x647C, symBinAddr: 0x10000F204, symSize: 0x28 }
  - { offsetInCU: 0x10A93, offset: 0x2135E, size: 0x8, addend: 0x0, symName: __ZNKSt3__117__compressed_pairIPNS_12basic_stringIcNS_11char_traitsIcEENS_9allocatorIcEEEERNS4_IS6_EEE5firstB7v160006Ev, symObjAddr: 0x64A4, symBinAddr: 0x10000F22C, symSize: 0x24 }
  - { offsetInCU: 0x10AB8, offset: 0x21383, size: 0x8, addend: 0x0, symName: __ZNSt3__115basic_stringbufIcNS_11char_traitsIcEENS_9allocatorIcEEEC1B7v160006ERKNS_12basic_stringIcS2_S4_EEj, symObjAddr: 0x64C8, symBinAddr: 0x10000F250, symSize: 0x3C }
  - { offsetInCU: 0x10AFD, offset: 0x213C8, size: 0x8, addend: 0x0, symName: __ZNSt3__115basic_stringbufIcNS_11char_traitsIcEENS_9allocatorIcEEEC2B7v160006ERKNS_12basic_stringIcS2_S4_EEj, symObjAddr: 0x6504, symBinAddr: 0x10000F28C, symSize: 0xB4 }
  - { offsetInCU: 0x10B42, offset: 0x2140D, size: 0x8, addend: 0x0, symName: __ZNKSt3__112basic_stringIcNS_11char_traitsIcEENS_9allocatorIcEEE13get_allocatorB7v160006Ev, symObjAddr: 0x65B8, symBinAddr: 0x10000F340, symSize: 0x24 }
  - { offsetInCU: 0x10B67, offset: 0x21432, size: 0x8, addend: 0x0, symName: __ZNSt3__112basic_stringIcNS_11char_traitsIcEENS_9allocatorIcEEEC1B7v160006ERKS4_, symObjAddr: 0x65DC, symBinAddr: 0x10000F364, symSize: 0x34 }
  - { offsetInCU: 0x10B9F, offset: 0x2146A, size: 0x8, addend: 0x0, symName: __ZNSt3__112basic_stringIcNS_11char_traitsIcEENS_9allocatorIcEEEC2B7v160006ERKS4_, symObjAddr: 0x666C, symBinAddr: 0x10000F398, symSize: 0x50 }
  - { offsetInCU: 0x10BD7, offset: 0x214A2, size: 0x8, addend: 0x0, symName: __ZNSt3__117__compressed_pairINS_12basic_stringIcNS_11char_traitsIcEENS_9allocatorIcEEE5__repES5_EC1B7v160006INS_18__default_init_tagERKS5_EEOT_OT0_, symObjAddr: 0x66BC, symBinAddr: 0x10000F3E8, symSize: 0x3C }
  - { offsetInCU: 0x10C2E, offset: 0x214F9, size: 0x8, addend: 0x0, symName: __ZNSt3__117__compressed_pairINS_12basic_stringIcNS_11char_traitsIcEENS_9allocatorIcEEE5__repES5_EC2B7v160006INS_18__default_init_tagERKS5_EEOT_OT0_, symObjAddr: 0x66F8, symBinAddr: 0x10000F424, symSize: 0x40 }
  - { offsetInCU: 0x10C85, offset: 0x21550, size: 0x8, addend: 0x0, symName: __ZNSt3__122__compressed_pair_elemINS_9allocatorIcEELi1ELb1EEC2B7v160006IRKS2_vEEOT_, symObjAddr: 0x6738, symBinAddr: 0x10000F464, symSize: 0x18 }
  - { offsetInCU: 0x10CC6, offset: 0x21591, size: 0x8, addend: 0x0, symName: __ZNKSt3__19basic_iosIcNS_11char_traitsIcEEE4failB7v160006Ev, symObjAddr: 0x6750, symBinAddr: 0x10000F47C, symSize: 0x28 }
  - { offsetInCU: 0x10CEB, offset: 0x215B6, size: 0x8, addend: 0x0, symName: __ZNKSt3__18ios_base4failB7v160006Ev, symObjAddr: 0x6778, symBinAddr: 0x10000F4A4, symSize: 0x28 }
  - { offsetInCU: 0x10D12, offset: 0x215DD, size: 0x8, addend: 0x0, symName: __ZNSt3__16vectorIPN3csv3RowENS_9allocatorIS3_EEE11__make_iterB7v160006EPS3_, symObjAddr: 0x67A0, symBinAddr: 0x10000F4CC, symSize: 0x34 }
  - { offsetInCU: 0x10D46, offset: 0x21611, size: 0x8, addend: 0x0, symName: __ZNSt3__111__wrap_iterIPPN3csv3RowEEC1B7v160006EPKvS4_, symObjAddr: 0x67D4, symBinAddr: 0x10000F500, symSize: 0x3C }
  - { offsetInCU: 0x10D8B, offset: 0x21656, size: 0x8, addend: 0x0, symName: __ZNSt3__111__wrap_iterIPPN3csv3RowEEC2B7v160006EPKvS4_, symObjAddr: 0x6810, symBinAddr: 0x10000F53C, symSize: 0x24 }
  - { offsetInCU: 0x10DD0, offset: 0x2169B, size: 0x8, addend: 0x0, symName: __ZNSt3__114basic_iostreamIcNS_11char_traitsIcEEEC2B7v160006EPNS_15basic_streambufIcS2_EE, symObjAddr: 0x6834, symBinAddr: 0x10000F560, symSize: 0xAC }
  - { offsetInCU: 0x10E14, offset: 0x216DF, size: 0x8, addend: 0x0, symName: __ZNSt3__113basic_ostreamIcNS_11char_traitsIcEEEC2B7v160006Ev, symObjAddr: 0x68E0, symBinAddr: 0x10000F60C, symSize: 0x34 }
  - { offsetInCU: 0x10E67, offset: 0x21732, size: 0x8, addend: 0x0, symName: __ZNSt3__16vectorINS_12basic_stringIcNS_11char_traitsIcEENS_9allocatorIcEEEENS4_IS6_EEE11__make_iterB7v160006EPS6_, symObjAddr: 0x6DD0, symBinAddr: 0x10000F640, symSize: 0x34 }
  - { offsetInCU: 0x10E9B, offset: 0x21766, size: 0x8, addend: 0x0, symName: __ZNSt3__111__wrap_iterIPNS_12basic_stringIcNS_11char_traitsIcEENS_9allocatorIcEEEEEC1B7v160006EPKvS7_, symObjAddr: 0x6E04, symBinAddr: 0x10000F674, symSize: 0x3C }
  - { offsetInCU: 0x10EE0, offset: 0x217AB, size: 0x8, addend: 0x0, symName: __ZNSt3__111__wrap_iterIPNS_12basic_stringIcNS_11char_traitsIcEENS_9allocatorIcEEEEEC2B7v160006EPKvS7_, symObjAddr: 0x6E40, symBinAddr: 0x10000F6B0, symSize: 0x24 }
  - { offsetInCU: 0x10F25, offset: 0x217F0, size: 0x8, addend: 0x0, symName: __ZNSt3__19allocatorIcEC1B7v160006Ev, symObjAddr: 0x6E64, symBinAddr: 0x10000F6D4, symSize: 0x2C }
  - { offsetInCU: 0x10F4E, offset: 0x21819, size: 0x8, addend: 0x0, symName: __ZNSt3__16vectorIPN3csv3RowENS_9allocatorIS3_EEE9__end_capB7v160006Ev, symObjAddr: 0x6E90, symBinAddr: 0x10000F700, symSize: 0x28 }
  - { offsetInCU: 0x10F73, offset: 0x2183E, size: 0x8, addend: 0x0, symName: __ZNSt3__16vectorIPN3csv3RowENS_9allocatorIS3_EEE22__construct_one_at_endB7v160006IJRKS3_EEEvDpOT_, symObjAddr: 0x6EB8, symBinAddr: 0x10000F728, symSize: 0x90 }
  - { offsetInCU: 0x10FC1, offset: 0x2188C, size: 0x8, addend: 0x0, symName: __ZNSt3__16vectorIPN3csv3RowENS_9allocatorIS3_EEE21__push_back_slow_pathIRKS3_EEvOT_, symObjAddr: 0x6F48, symBinAddr: 0x10000F7B8, symSize: 0xD8 }
  - { offsetInCU: 0x1101D, offset: 0x218E8, size: 0x8, addend: 0x0, symName: __ZNSt3__117__compressed_pairIPPN3csv3RowENS_9allocatorIS3_EEE5firstB7v160006Ev, symObjAddr: 0x7020, symBinAddr: 0x10000F890, symSize: 0x24 }
  - { offsetInCU: 0x11042, offset: 0x2190D, size: 0x8, addend: 0x0, symName: __ZNSt3__122__compressed_pair_elemIPPN3csv3RowELi0ELb0EE5__getB7v160006Ev, symObjAddr: 0x7044, symBinAddr: 0x10000F8B4, symSize: 0x14 }
  - { offsetInCU: 0x11080, offset: 0x2194B, size: 0x8, addend: 0x0, symName: __ZNSt3__16vectorIPN3csv3RowENS_9allocatorIS3_EEE21_ConstructTransactionC1B7v160006ERS6_m, symObjAddr: 0x7058, symBinAddr: 0x10000F8C8, symSize: 0x3C }
  - { offsetInCU: 0x110C7, offset: 0x21992, size: 0x8, addend: 0x0, symName: __ZNSt3__116allocator_traitsINS_9allocatorIPN3csv3RowEEEE9constructB7v160006IS4_JRKS4_EvEEvRS5_PT_DpOT0_, symObjAddr: 0x7094, symBinAddr: 0x10000F904, symSize: 0x34 }
  - { offsetInCU: 0x1111E, offset: 0x219E9, size: 0x8, addend: 0x0, symName: __ZNSt3__16vectorIPN3csv3RowENS_9allocatorIS3_EEE21_ConstructTransactionD1B7v160006Ev, symObjAddr: 0x70C8, symBinAddr: 0x10000F938, symSize: 0x2C }
  - { offsetInCU: 0x11147, offset: 0x21A12, size: 0x8, addend: 0x0, symName: __ZNSt3__16vectorIPN3csv3RowENS_9allocatorIS3_EEE21_ConstructTransactionC2B7v160006ERS6_m, symObjAddr: 0x70F4, symBinAddr: 0x10000F964, symSize: 0x44 }
  - { offsetInCU: 0x1118E, offset: 0x21A59, size: 0x8, addend: 0x0, symName: __ZNSt3__19allocatorIPN3csv3RowEE9constructB7v160006IS3_JRKS3_EEEvPT_DpOT0_, symObjAddr: 0x7138, symBinAddr: 0x10000F9A8, symSize: 0x28 }
  - { offsetInCU: 0x111E3, offset: 0x21AAE, size: 0x8, addend: 0x0, symName: __ZNSt3__16vectorIPN3csv3RowENS_9allocatorIS3_EEE21_ConstructTransactionD2B7v160006Ev, symObjAddr: 0x7160, symBinAddr: 0x10000F9D0, symSize: 0x20 }
  - { offsetInCU: 0x1120C, offset: 0x21AD7, size: 0x8, addend: 0x0, symName: __ZNKSt3__16vectorIPN3csv3RowENS_9allocatorIS3_EEE11__recommendB7v160006Em, symObjAddr: 0x7180, symBinAddr: 0x10000F9F0, symSize: 0xB4 }
  - { offsetInCU: 0x1125F, offset: 0x21B2A, size: 0x8, addend: 0x0, symName: __ZNSt3__114__split_bufferIPN3csv3RowERNS_9allocatorIS3_EEEC1EmmS6_, symObjAddr: 0x7234, symBinAddr: 0x10000FAA4, symSize: 0x44 }
  - { offsetInCU: 0x112B4, offset: 0x21B7F, size: 0x8, addend: 0x0, symName: __ZNSt3__114__split_bufferIPN3csv3RowERNS_9allocatorIS3_EEED1Ev, symObjAddr: 0x7390, symBinAddr: 0x10000FC00, symSize: 0x2C }
  - { offsetInCU: 0x112DF, offset: 0x21BAA, size: 0x8, addend: 0x0, symName: __ZNKSt3__16vectorIPN3csv3RowENS_9allocatorIS3_EEE8max_sizeEv, symObjAddr: 0x73BC, symBinAddr: 0x10000FC2C, symSize: 0x60 }
  - { offsetInCU: 0x11305, offset: 0x21BD0, size: 0x8, addend: 0x0, symName: __ZNKSt3__16vectorIPN3csv3RowENS_9allocatorIS3_EEE20__throw_length_errorB7v160006Ev, symObjAddr: 0x741C, symBinAddr: 0x10000FC8C, symSize: 0x1C }
  - { offsetInCU: 0x11334, offset: 0x21BFF, size: 0x8, addend: 0x0, symName: __ZNSt3__116allocator_traitsINS_9allocatorIPN3csv3RowEEEE8max_sizeB7v160006IS5_vEEmRKS5_, symObjAddr: 0x7438, symBinAddr: 0x10000FCA8, symSize: 0x24 }
  - { offsetInCU: 0x11362, offset: 0x21C2D, size: 0x8, addend: 0x0, symName: __ZNKSt3__16vectorIPN3csv3RowENS_9allocatorIS3_EEE7__allocB7v160006Ev, symObjAddr: 0x745C, symBinAddr: 0x10000FCCC, symSize: 0x28 }
  - { offsetInCU: 0x11387, offset: 0x21C52, size: 0x8, addend: 0x0, symName: __ZNKSt3__19allocatorIPN3csv3RowEE8max_sizeB7v160006Ev, symObjAddr: 0x7484, symBinAddr: 0x10000FCF4, symSize: 0x14 }
  - { offsetInCU: 0x113AC, offset: 0x21C77, size: 0x8, addend: 0x0, symName: __ZNKSt3__117__compressed_pairIPPN3csv3RowENS_9allocatorIS3_EEE6secondB7v160006Ev, symObjAddr: 0x7498, symBinAddr: 0x10000FD08, symSize: 0x24 }
  - { offsetInCU: 0x113D1, offset: 0x21C9C, size: 0x8, addend: 0x0, symName: __ZNKSt3__122__compressed_pair_elemINS_9allocatorIPN3csv3RowEEELi1ELb1EE5__getB7v160006Ev, symObjAddr: 0x74BC, symBinAddr: 0x10000FD2C, symSize: 0x14 }
  - { offsetInCU: 0x113F6, offset: 0x21CC1, size: 0x8, addend: 0x0, symName: __ZNSt3__114__split_bufferIPN3csv3RowERNS_9allocatorIS3_EEEC2EmmS6_, symObjAddr: 0x74D0, symBinAddr: 0x10000FD40, symSize: 0xD4 }
  - { offsetInCU: 0x11468, offset: 0x21D33, size: 0x8, addend: 0x0, symName: __ZNSt3__117__compressed_pairIPPN3csv3RowERNS_9allocatorIS3_EEEC1B7v160006IDnS7_EEOT_OT0_, symObjAddr: 0x75A4, symBinAddr: 0x10000FE14, symSize: 0x3C }
  - { offsetInCU: 0x114BF, offset: 0x21D8A, size: 0x8, addend: 0x0, symName: __ZNSt3__114__split_bufferIPN3csv3RowERNS_9allocatorIS3_EEE7__allocB7v160006Ev, symObjAddr: 0x7620, symBinAddr: 0x10000FE90, symSize: 0x28 }
  - { offsetInCU: 0x114E4, offset: 0x21DAF, size: 0x8, addend: 0x0, symName: __ZNSt3__114__split_bufferIPN3csv3RowERNS_9allocatorIS3_EEE9__end_capB7v160006Ev, symObjAddr: 0x7648, symBinAddr: 0x10000FEB8, symSize: 0x28 }
  - { offsetInCU: 0x11509, offset: 0x21DD4, size: 0x8, addend: 0x0, symName: __ZNSt3__117__compressed_pairIPPN3csv3RowERNS_9allocatorIS3_EEEC2B7v160006IDnS7_EEOT_OT0_, symObjAddr: 0x7670, symBinAddr: 0x10000FEE0, symSize: 0x48 }
  - { offsetInCU: 0x11560, offset: 0x21E2B, size: 0x8, addend: 0x0, symName: __ZNSt3__122__compressed_pair_elemIRNS_9allocatorIPN3csv3RowEEELi1ELb0EEC2B7v160006IS6_vEEOT_, symObjAddr: 0x76B8, symBinAddr: 0x10000FF28, symSize: 0x20 }
  - { offsetInCU: 0x115A1, offset: 0x21E6C, size: 0x8, addend: 0x0, symName: __ZNSt3__19allocatorIPN3csv3RowEE8allocateB7v160006Em, symObjAddr: 0x76D8, symBinAddr: 0x10000FF48, symSize: 0x58 }
  - { offsetInCU: 0x115D4, offset: 0x21E9F, size: 0x8, addend: 0x0, symName: __ZNSt3__117__compressed_pairIPPN3csv3RowERNS_9allocatorIS3_EEE6secondB7v160006Ev, symObjAddr: 0x7730, symBinAddr: 0x10000FFA0, symSize: 0x28 }
  - { offsetInCU: 0x115F9, offset: 0x21EC4, size: 0x8, addend: 0x0, symName: __ZNSt3__122__compressed_pair_elemIRNS_9allocatorIPN3csv3RowEEELi1ELb0EE5__getB7v160006Ev, symObjAddr: 0x7758, symBinAddr: 0x10000FFC8, symSize: 0x18 }
  - { offsetInCU: 0x1161E, offset: 0x21EE9, size: 0x8, addend: 0x0, symName: __ZNSt3__117__compressed_pairIPPN3csv3RowERNS_9allocatorIS3_EEE5firstB7v160006Ev, symObjAddr: 0x7770, symBinAddr: 0x10000FFE0, symSize: 0x24 }
  - { offsetInCU: 0x11643, offset: 0x21F0E, size: 0x8, addend: 0x0, symName: __ZNSt3__116reverse_iteratorIPPN3csv3RowEEC1B7v160006ES4_, symObjAddr: 0x780C, symBinAddr: 0x10001007C, symSize: 0x34 }
  - { offsetInCU: 0x1167A, offset: 0x21F45, size: 0x8, addend: 0x0, symName: __ZNKSt3__116reverse_iteratorIPPN3csv3RowEE4baseB7v160006Ev, symObjAddr: 0x7840, symBinAddr: 0x1000100B0, symSize: 0x18 }
  - { offsetInCU: 0x1169F, offset: 0x21F6A, size: 0x8, addend: 0x0, symName: __ZNKSt3__16vectorIPN3csv3RowENS_9allocatorIS3_EEE14__annotate_newB7v160006Em, symObjAddr: 0x7894, symBinAddr: 0x100010104, symSize: 0xAC }
  - { offsetInCU: 0x116F6, offset: 0x21FC1, size: 0x8, addend: 0x0, symName: __ZNKSt3__111__move_loopINS_17_ClassicAlgPolicyEEclB7v160006INS_16reverse_iteratorIPPN3csv3RowEEES9_S9_EENS_4pairIT_T1_EESB_T0_SC_, symObjAddr: 0x7C40, symBinAddr: 0x1000104B0, symSize: 0xA0 }
  - { offsetInCU: 0x11760, offset: 0x2202B, size: 0x8, addend: 0x0, symName: __ZNSt3__18_IterOpsINS_17_ClassicAlgPolicyEE11__iter_moveB7v160006IRNS_16reverse_iteratorIPPN3csv3RowEEEEENS_9enable_ifIXsr12is_referenceIDTdeclsr3stdE7declvalIRT_EEEEE5valueEDTclsr3stdE4movedeclsr3stdE7declvalISD_EEEEE4typeEOSC_, symObjAddr: 0x7E74, symBinAddr: 0x1000106E4, symSize: 0x28 }
  - { offsetInCU: 0x1178C, offset: 0x22057, size: 0x8, addend: 0x0, symName: __ZNKSt3__116reverse_iteratorIPPN3csv3RowEEdeB7v160006Ev, symObjAddr: 0x7E9C, symBinAddr: 0x10001070C, symSize: 0x28 }
  - { offsetInCU: 0x117BF, offset: 0x2208A, size: 0x8, addend: 0x0, symName: __ZNSt3__116reverse_iteratorIPPN3csv3RowEEppB7v160006Ev, symObjAddr: 0x7EC4, symBinAddr: 0x100010734, symSize: 0x20 }
  - { offsetInCU: 0x117E4, offset: 0x220AF, size: 0x8, addend: 0x0, symName: __ZNSt3__18_IterOpsINS_17_ClassicAlgPolicyEE25__validate_iter_referenceB7v160006IRNS_16reverse_iteratorIPPN3csv3RowEEEEEvv, symObjAddr: 0x7EE4, symBinAddr: 0x100010754, symSize: 0x4 }
  - { offsetInCU: 0x11802, offset: 0x220CD, size: 0x8, addend: 0x0, symName: __ZNSt3__118__unwrap_iter_implINS_16reverse_iteratorIPPN3csv3RowEEELb0EE8__unwrapB7v160006ES6_, symObjAddr: 0x7EE8, symBinAddr: 0x100010758, symSize: 0x24 }
  - { offsetInCU: 0x1182A, offset: 0x220F5, size: 0x8, addend: 0x0, symName: __ZNSt3__14pairINS_16reverse_iteratorIPPN3csv3RowEEES6_EC1B7v160006IS6_S6_LPv0EEEOT_OT0_, symObjAddr: 0x7F0C, symBinAddr: 0x10001077C, symSize: 0x3C }
  - { offsetInCU: 0x11887, offset: 0x22152, size: 0x8, addend: 0x0, symName: __ZNSt3__14pairINS_16reverse_iteratorIPPN3csv3RowEEES6_EC2B7v160006IS6_S6_LPv0EEEOT_OT0_, symObjAddr: 0x7F48, symBinAddr: 0x1000107B8, symSize: 0x34 }
  - { offsetInCU: 0x118E4, offset: 0x221AF, size: 0x8, addend: 0x0, symName: __ZNSt3__118__unwrap_iter_implINS_16reverse_iteratorIPPN3csv3RowEEELb0EE8__rewrapB7v160006ES6_S6_, symObjAddr: 0x7F7C, symBinAddr: 0x1000107EC, symSize: 0x2C }
  - { offsetInCU: 0x11912, offset: 0x221DD, size: 0x8, addend: 0x0, symName: __ZNSt3__116reverse_iteratorIPPN3csv3RowEEC2B7v160006ES4_, symObjAddr: 0x7FA8, symBinAddr: 0x100010818, symSize: 0x28 }
  - { offsetInCU: 0x11949, offset: 0x22214, size: 0x8, addend: 0x0, symName: __ZNSt3__114__split_bufferIPN3csv3RowERNS_9allocatorIS3_EEED2Ev, symObjAddr: 0x7FD0, symBinAddr: 0x100010840, symSize: 0x8C }
  - { offsetInCU: 0x11974, offset: 0x2223F, size: 0x8, addend: 0x0, symName: __ZNSt3__114__split_bufferIPN3csv3RowERNS_9allocatorIS3_EEE5clearB7v160006Ev, symObjAddr: 0x805C, symBinAddr: 0x1000108CC, symSize: 0x28 }
  - { offsetInCU: 0x11999, offset: 0x22264, size: 0x8, addend: 0x0, symName: __ZNKSt3__114__split_bufferIPN3csv3RowERNS_9allocatorIS3_EEE8capacityB7v160006Ev, symObjAddr: 0x8084, symBinAddr: 0x1000108F4, symSize: 0x40 }
  - { offsetInCU: 0x119BE, offset: 0x22289, size: 0x8, addend: 0x0, symName: __ZNSt3__114__split_bufferIPN3csv3RowERNS_9allocatorIS3_EEE17__destruct_at_endB7v160006EPS3_, symObjAddr: 0x80C4, symBinAddr: 0x100010934, symSize: 0x2C }
  - { offsetInCU: 0x119F1, offset: 0x222BC, size: 0x8, addend: 0x0, symName: __ZNSt3__114__split_bufferIPN3csv3RowERNS_9allocatorIS3_EEE17__destruct_at_endB7v160006EPS3_NS_17integral_constantIbLb0EEE, symObjAddr: 0x80F0, symBinAddr: 0x100010960, symSize: 0x80 }
  - { offsetInCU: 0x11A30, offset: 0x222FB, size: 0x8, addend: 0x0, symName: __ZNKSt3__114__split_bufferIPN3csv3RowERNS_9allocatorIS3_EEE9__end_capB7v160006Ev, symObjAddr: 0x8170, symBinAddr: 0x1000109E0, symSize: 0x28 }
  - { offsetInCU: 0x11A55, offset: 0x22320, size: 0x8, addend: 0x0, symName: __ZNKSt3__117__compressed_pairIPPN3csv3RowERNS_9allocatorIS3_EEE5firstB7v160006Ev, symObjAddr: 0x8198, symBinAddr: 0x100010A08, symSize: 0x24 }
  - { offsetInCU: 0x11A7A, offset: 0x22345, size: 0x8, addend: 0x0, symName: __ZNSt3__16vectorINS_12basic_stringIcNS_11char_traitsIcEENS_9allocatorIcEEEENS4_IS6_EEEC2ERKS8_, symObjAddr: 0x81BC, symBinAddr: 0x100010A2C, symSize: 0x110 }
  - { offsetInCU: 0x11AD8, offset: 0x223A3, size: 0x8, addend: 0x0, symName: __ZNSt3__116allocator_traitsINS_9allocatorINS_12basic_stringIcNS_11char_traitsIcEENS1_IcEEEEEEE37select_on_container_copy_constructionB7v160006IS7_vvEES7_RKS7_, symObjAddr: 0x82CC, symBinAddr: 0x100010B3C, symSize: 0x10 }
  - { offsetInCU: 0x11B0C, offset: 0x223D7, size: 0x8, addend: 0x0, symName: __ZNSt3__117__compressed_pairIPNS_12basic_stringIcNS_11char_traitsIcEENS_9allocatorIcEEEENS4_IS6_EEEC1B7v160006IDnS8_EEOT_OT0_, symObjAddr: 0x82DC, symBinAddr: 0x100010B4C, symSize: 0x3C }
  - { offsetInCU: 0x11B63, offset: 0x2242E, size: 0x8, addend: 0x0, symName: __ZNSt3__16vectorINS_12basic_stringIcNS_11char_traitsIcEENS_9allocatorIcEEEENS4_IS6_EEE11__vallocateB7v160006Em, symObjAddr: 0x8358, symBinAddr: 0x100010BC8, symSize: 0xB4 }
  - { offsetInCU: 0x11BA6, offset: 0x22471, size: 0x8, addend: 0x0, symName: __ZNSt3__16vectorINS_12basic_stringIcNS_11char_traitsIcEENS_9allocatorIcEEEENS4_IS6_EEE18__construct_at_endIPS6_Li0EEEvT_SB_m, symObjAddr: 0x840C, symBinAddr: 0x100010C7C, symSize: 0x8C }
  - { offsetInCU: 0x11C18, offset: 0x224E3, size: 0x8, addend: 0x0, symName: __ZNSt3__128__exception_guard_exceptionsINS_6vectorINS_12basic_stringIcNS_11char_traitsIcEENS_9allocatorIcEEEENS5_IS7_EEE16__destroy_vectorEE10__completeB7v160006Ev, symObjAddr: 0x8498, symBinAddr: 0x100010D08, symSize: 0x1C }
  - { offsetInCU: 0x11C3D, offset: 0x22508, size: 0x8, addend: 0x0, symName: __ZNSt3__128__exception_guard_exceptionsINS_6vectorINS_12basic_stringIcNS_11char_traitsIcEENS_9allocatorIcEEEENS5_IS7_EEE16__destroy_vectorEED1B7v160006Ev, symObjAddr: 0x84B4, symBinAddr: 0x100010D24, symSize: 0x2C }
  - { offsetInCU: 0x11C66, offset: 0x22531, size: 0x8, addend: 0x0, symName: __ZNSt3__117__compressed_pairIPNS_12basic_stringIcNS_11char_traitsIcEENS_9allocatorIcEEEENS4_IS6_EEEC2B7v160006IDnS8_EEOT_OT0_, symObjAddr: 0x84E0, symBinAddr: 0x100010D50, symSize: 0x44 }
  - { offsetInCU: 0x11CBD, offset: 0x22588, size: 0x8, addend: 0x0, symName: __ZNSt3__122__compressed_pair_elemINS_9allocatorINS_12basic_stringIcNS_11char_traitsIcEENS1_IcEEEEEELi1ELb1EEC2B7v160006IS7_vEEOT_, symObjAddr: 0x8524, symBinAddr: 0x100010D94, symSize: 0x18 }
  - { offsetInCU: 0x11CFE, offset: 0x225C9, size: 0x8, addend: 0x0, symName: __ZNSt3__128__exception_guard_exceptionsINS_6vectorINS_12basic_stringIcNS_11char_traitsIcEENS_9allocatorIcEEEENS5_IS7_EEE16__destroy_vectorEEC1B7v160006ESA_, symObjAddr: 0x853C, symBinAddr: 0x100010DAC, symSize: 0x34 }
  - { offsetInCU: 0x11D35, offset: 0x22600, size: 0x8, addend: 0x0, symName: __ZNSt3__128__exception_guard_exceptionsINS_6vectorINS_12basic_stringIcNS_11char_traitsIcEENS_9allocatorIcEEEENS5_IS7_EEE16__destroy_vectorEEC2B7v160006ESA_, symObjAddr: 0x8570, symBinAddr: 0x100010DE0, symSize: 0x24 }
  - { offsetInCU: 0x11D6C, offset: 0x22637, size: 0x8, addend: 0x0, symName: __ZNSt3__129_AllocatorDestroyRangeReverseINS_9allocatorINS_12basic_stringIcNS_11char_traitsIcEENS1_IcEEEEEEPS6_EC1B7v160006ERS7_RS8_SB_, symObjAddr: 0x86D4, symBinAddr: 0x100010F44, symSize: 0x44 }
  - { offsetInCU: 0x11DC2, offset: 0x2268D, size: 0x8, addend: 0x0, symName: __ZNSt3__116allocator_traitsINS_9allocatorINS_12basic_stringIcNS_11char_traitsIcEENS1_IcEEEEEEE9constructB7v160006IS6_JRS6_EvEEvRS7_PT_DpOT0_, symObjAddr: 0x8718, symBinAddr: 0x100010F88, symSize: 0x34 }
  - { offsetInCU: 0x11E19, offset: 0x226E4, size: 0x8, addend: 0x0, symName: __ZNSt3__128__exception_guard_exceptionsINS_29_AllocatorDestroyRangeReverseINS_9allocatorINS_12basic_stringIcNS_11char_traitsIcEENS2_IcEEEEEEPS7_EEE10__completeB7v160006Ev, symObjAddr: 0x874C, symBinAddr: 0x100010FBC, symSize: 0x1C }
  - { offsetInCU: 0x11E3E, offset: 0x22709, size: 0x8, addend: 0x0, symName: __ZNSt3__128__exception_guard_exceptionsINS_29_AllocatorDestroyRangeReverseINS_9allocatorINS_12basic_stringIcNS_11char_traitsIcEENS2_IcEEEEEEPS7_EEED1B7v160006Ev, symObjAddr: 0x8768, symBinAddr: 0x100010FD8, symSize: 0x2C }
  - { offsetInCU: 0x11E67, offset: 0x22732, size: 0x8, addend: 0x0, symName: __ZNSt3__128__exception_guard_exceptionsINS_29_AllocatorDestroyRangeReverseINS_9allocatorINS_12basic_stringIcNS_11char_traitsIcEENS2_IcEEEEEEPS7_EEEC1B7v160006ESA_, symObjAddr: 0x8794, symBinAddr: 0x100011004, symSize: 0x34 }
  - { offsetInCU: 0x11E9F, offset: 0x2276A, size: 0x8, addend: 0x0, symName: __ZNSt3__128__exception_guard_exceptionsINS_29_AllocatorDestroyRangeReverseINS_9allocatorINS_12basic_stringIcNS_11char_traitsIcEENS2_IcEEEEEEPS7_EEEC2B7v160006ESA_, symObjAddr: 0x87C8, symBinAddr: 0x100011038, symSize: 0x30 }
  - { offsetInCU: 0x11ED7, offset: 0x227A2, size: 0x8, addend: 0x0, symName: __ZNSt3__129_AllocatorDestroyRangeReverseINS_9allocatorINS_12basic_stringIcNS_11char_traitsIcEENS1_IcEEEEEEPS6_EC2B7v160006ERS7_RS8_SB_, symObjAddr: 0x87F8, symBinAddr: 0x100011068, symSize: 0x38 }
  - { offsetInCU: 0x11F2D, offset: 0x227F8, size: 0x8, addend: 0x0, symName: __ZNSt3__19allocatorINS_12basic_stringIcNS_11char_traitsIcEENS0_IcEEEEE9constructB7v160006IS5_JRS5_EEEvPT_DpOT0_, symObjAddr: 0x8830, symBinAddr: 0x1000110A0, symSize: 0x30 }
  - { offsetInCU: 0x11F82, offset: 0x2284D, size: 0x8, addend: 0x0, symName: __ZNSt3__128__exception_guard_exceptionsINS_29_AllocatorDestroyRangeReverseINS_9allocatorINS_12basic_stringIcNS_11char_traitsIcEENS2_IcEEEEEEPS7_EEED2B7v160006Ev, symObjAddr: 0x8860, symBinAddr: 0x1000110D0, symSize: 0x50 }
  - { offsetInCU: 0x11FAB, offset: 0x22876, size: 0x8, addend: 0x0, symName: __ZNKSt3__129_AllocatorDestroyRangeReverseINS_9allocatorINS_12basic_stringIcNS_11char_traitsIcEENS1_IcEEEEEEPS6_EclB7v160006Ev, symObjAddr: 0x88B0, symBinAddr: 0x100011120, symSize: 0x68 }
  - { offsetInCU: 0x11FD0, offset: 0x2289B, size: 0x8, addend: 0x0, symName: __ZNSt3__128__exception_guard_exceptionsINS_6vectorINS_12basic_stringIcNS_11char_traitsIcEENS_9allocatorIcEEEENS5_IS7_EEE16__destroy_vectorEED2B7v160006Ev, symObjAddr: 0x8988, symBinAddr: 0x1000111F8, symSize: 0x50 }
  - { offsetInCU: 0x11FF9, offset: 0x228C4, size: 0x8, addend: 0x0, symName: __ZNKSt3__16vectorIPN3csv3RowENS_9allocatorIS3_EEE6cbeginB7v160006Ev, symObjAddr: 0x8A20, symBinAddr: 0x100011290, symSize: 0x2C }
  - { offsetInCU: 0x1201E, offset: 0x228E9, size: 0x8, addend: 0x0, symName: __ZNSt3__16vectorIPN3csv3RowENS_9allocatorIS3_EEE17__destruct_at_endB7v160006EPS3_, symObjAddr: 0x8A4C, symBinAddr: 0x1000112BC, symSize: 0x60 }
  - { offsetInCU: 0x12061, offset: 0x2292C, size: 0x8, addend: 0x0, symName: __ZNSt3__16vectorIPN3csv3RowENS_9allocatorIS3_EEE27__invalidate_iterators_pastB7v160006EPS3_, symObjAddr: 0x8AEC, symBinAddr: 0x10001135C, symSize: 0x14 }
  - { offsetInCU: 0x12097, offset: 0x22962, size: 0x8, addend: 0x0, symName: __ZNKSt3__16vectorIPN3csv3RowENS_9allocatorIS3_EEE17__annotate_shrinkB7v160006Em, symObjAddr: 0x8B00, symBinAddr: 0x100011370, symSize: 0xB4 }
  - { offsetInCU: 0x120EE, offset: 0x229B9, size: 0x8, addend: 0x0, symName: __ZNKSt3__114__move_trivialclB7v160006IPN3csv3RowES4_Li0EEENS_4pairIPT_PT0_EES7_S7_S9_, symObjAddr: 0x8D50, symBinAddr: 0x1000115C0, symSize: 0x48 }
  - { offsetInCU: 0x1215B, offset: 0x22A26, size: 0x8, addend: 0x0, symName: __ZNSt3__14pairIPPN3csv3RowES4_EC1B7v160006IRS4_S4_LPv0EEEOT_OT0_, symObjAddr: 0x8F18, symBinAddr: 0x100011788, symSize: 0x3C }
  - { offsetInCU: 0x121B8, offset: 0x22A83, size: 0x8, addend: 0x0, symName: __ZNSt3__14pairIPPN3csv3RowES4_EC2B7v160006IRS4_S4_LPv0EEEOT_OT0_, symObjAddr: 0x8F54, symBinAddr: 0x1000117C4, symSize: 0x34 }
  - { offsetInCU: 0x12215, offset: 0x22AE0, size: 0x8, addend: 0x0, symName: __ZNSt3__118__unwrap_iter_implIPPN3csv3RowELb1EE8__unwrapB7v160006ES4_, symObjAddr: 0x8F88, symBinAddr: 0x1000117F8, symSize: 0x24 }
  - { offsetInCU: 0x12238, offset: 0x22B03, size: 0x8, addend: 0x0, symName: __ZNSt3__14pairIPPN3csv3RowES4_EC1B7v160006IS4_S4_LPv0EEEOT_OT0_, symObjAddr: 0x8FAC, symBinAddr: 0x10001181C, symSize: 0x3C }
  - { offsetInCU: 0x12295, offset: 0x22B60, size: 0x8, addend: 0x0, symName: __ZNSt3__14pairIPPN3csv3RowES4_EC2B7v160006IS4_S4_LPv0EEEOT_OT0_, symObjAddr: 0x8FE8, symBinAddr: 0x100011858, symSize: 0x34 }
  - { offsetInCU: 0x122F2, offset: 0x22BBD, size: 0x8, addend: 0x0, symName: __ZNSt3__118__unwrap_iter_implIPPN3csv3RowELb1EE8__rewrapB7v160006ES4_S4_, symObjAddr: 0x901C, symBinAddr: 0x10001188C, symSize: 0x50 }
  - { offsetInCU: 0x12323, offset: 0x22BEE, size: 0x8, addend: 0x0, symName: __ZNKSt3__16vectorINS_12basic_stringIcNS_11char_traitsIcEENS_9allocatorIcEEEENS4_IS6_EEE11__make_iterB7v160006EPKS6_, symObjAddr: 0x906C, symBinAddr: 0x1000118DC, symSize: 0x34 }
  - { offsetInCU: 0x12357, offset: 0x22C22, size: 0x8, addend: 0x0, symName: __ZNSt3__111__wrap_iterIPKNS_12basic_stringIcNS_11char_traitsIcEENS_9allocatorIcEEEEEC1B7v160006EPKvS8_, symObjAddr: 0x90A0, symBinAddr: 0x100011910, symSize: 0x3C }
  - { offsetInCU: 0x1239C, offset: 0x22C67, size: 0x8, addend: 0x0, symName: __ZNSt3__111__wrap_iterIPKNS_12basic_stringIcNS_11char_traitsIcEENS_9allocatorIcEEEEEC2B7v160006EPKvS8_, symObjAddr: 0x90DC, symBinAddr: 0x10001194C, symSize: 0x24 }
  - { offsetInCU: 0x123E1, offset: 0x22CAC, size: 0x8, addend: 0x0, symName: __ZNSt3__16vectorIPN3csv3RowENS_9allocatorIS3_EEE12__move_rangeEPS3_S7_S7_, symObjAddr: 0x9148, symBinAddr: 0x1000119B8, symSize: 0x12C }
  - { offsetInCU: 0x1249B, offset: 0x22D66, size: 0x8, addend: 0x0, symName: __ZNSt3__114pointer_traitsIPKPN3csv3RowEE10pointer_toB7v160006ERS4_, symObjAddr: 0x9274, symBinAddr: 0x100011AE4, symSize: 0x14 }
  - { offsetInCU: 0x124BE, offset: 0x22D89, size: 0x8, addend: 0x0, symName: __ZNSt3__114__split_bufferIPN3csv3RowERNS_9allocatorIS3_EEE9push_backB7v160006ERKS3_, symObjAddr: 0x9288, symBinAddr: 0x100011AF8, symSize: 0x260 }
  - { offsetInCU: 0x12534, offset: 0x22DFF, size: 0x8, addend: 0x0, symName: __ZNSt3__116allocator_traitsINS_9allocatorIPN3csv3RowEEEE9constructB7v160006IS4_JS4_EvEEvRS5_PT_DpOT0_, symObjAddr: 0x963C, symBinAddr: 0x100011EAC, symSize: 0x34 }
  - { offsetInCU: 0x1258B, offset: 0x22E56, size: 0x8, addend: 0x0, symName: __ZNSt3__19allocatorIPN3csv3RowEE9constructB7v160006IS3_JS3_EEEvPT_DpOT0_, symObjAddr: 0x96B0, symBinAddr: 0x100011F20, symSize: 0x28 }
  - { offsetInCU: 0x125EA, offset: 0x22EB5, size: 0x8, addend: 0x0, symName: __ZNKSt3__123__move_backward_trivialclB7v160006IPN3csv3RowES4_Li0EEENS_4pairIPT_PT0_EES7_S7_S9_, symObjAddr: 0x9814, symBinAddr: 0x100012084, symSize: 0x48 }
  - { offsetInCU: 0x12652, offset: 0x22F1D, size: 0x8, addend: 0x0, symName: __ZNSt3__14pairIPPN3csv3RowES4_EC1B7v160006IRS4_S7_LPv0EEEOT_OT0_, symObjAddr: 0x9928, symBinAddr: 0x100012198, symSize: 0x3C }
  - { offsetInCU: 0x126AF, offset: 0x22F7A, size: 0x8, addend: 0x0, symName: __ZNSt3__14pairIPPN3csv3RowES4_EC2B7v160006IRS4_S7_LPv0EEEOT_OT0_, symObjAddr: 0x9964, symBinAddr: 0x1000121D4, symSize: 0x34 }
  - { offsetInCU: 0x1270C, offset: 0x22FD7, size: 0x8, addend: 0x0, symName: __ZNSt3__114__split_bufferIPN3csv3RowERNS_9allocatorIS3_EEE18__construct_at_endINS_13move_iteratorIPS3_EEEENS_9enable_ifIXsr27__is_cpp17_forward_iteratorIT_EE5valueEvE4typeESD_SD_, symObjAddr: 0x9998, symBinAddr: 0x100012208, symSize: 0xFC }
  - { offsetInCU: 0x12766, offset: 0x23031, size: 0x8, addend: 0x0, symName: __ZNSt3__113move_iteratorIPPN3csv3RowEEC1B7v160006ES4_, symObjAddr: 0x9A94, symBinAddr: 0x100012304, symSize: 0x34 }
  - { offsetInCU: 0x127A7, offset: 0x23072, size: 0x8, addend: 0x0, symName: __ZNSt3__114__split_bufferIPN3csv3RowERNS_9allocatorIS3_EEE21_ConstructTransactionC1B7v160006EPPS3_m, symObjAddr: 0x9B04, symBinAddr: 0x100012374, symSize: 0x3C }
  - { offsetInCU: 0x127EC, offset: 0x230B7, size: 0x8, addend: 0x0, symName: __ZNKSt3__113move_iteratorIPPN3csv3RowEEdeB7v160006Ev, symObjAddr: 0x9B40, symBinAddr: 0x1000123B0, symSize: 0x18 }
  - { offsetInCU: 0x12811, offset: 0x230DC, size: 0x8, addend: 0x0, symName: __ZNSt3__113move_iteratorIPPN3csv3RowEEppB7v160006Ev, symObjAddr: 0x9B58, symBinAddr: 0x1000123C8, symSize: 0x20 }
  - { offsetInCU: 0x12836, offset: 0x23101, size: 0x8, addend: 0x0, symName: __ZNSt3__114__split_bufferIPN3csv3RowERNS_9allocatorIS3_EEE21_ConstructTransactionD1B7v160006Ev, symObjAddr: 0x9B78, symBinAddr: 0x1000123E8, symSize: 0x2C }
  - { offsetInCU: 0x1285F, offset: 0x2312A, size: 0x8, addend: 0x0, symName: __ZNKSt3__113move_iteratorIPPN3csv3RowEE4baseB7v160006Ev, symObjAddr: 0x9C1C, symBinAddr: 0x10001248C, symSize: 0x18 }
  - { offsetInCU: 0x12884, offset: 0x2314F, size: 0x8, addend: 0x0, symName: __ZNSt3__114__split_bufferIPN3csv3RowERNS_9allocatorIS3_EEE21_ConstructTransactionC2B7v160006EPPS3_m, symObjAddr: 0x9C34, symBinAddr: 0x1000124A4, symSize: 0x44 }
  - { offsetInCU: 0x128C9, offset: 0x23194, size: 0x8, addend: 0x0, symName: __ZNSt3__114__split_bufferIPN3csv3RowERNS_9allocatorIS3_EEE21_ConstructTransactionD2B7v160006Ev, symObjAddr: 0x9C78, symBinAddr: 0x1000124E8, symSize: 0x20 }
  - { offsetInCU: 0x128F2, offset: 0x231BD, size: 0x8, addend: 0x0, symName: __ZNSt3__113move_iteratorIPPN3csv3RowEEC2B7v160006ES4_, symObjAddr: 0x9C98, symBinAddr: 0x100012508, symSize: 0x20 }
  - { offsetInCU: 0x12929, offset: 0x231F4, size: 0x8, addend: 0x0, symName: __ZNSt3__113basic_ostreamIcNS_11char_traitsIcEEEC2B7v160006EPNS_15basic_streambufIcS2_EE, symObjAddr: 0x9CF0, symBinAddr: 0x100012560, symSize: 0x60 }
  - { offsetInCU: 0x1298A, offset: 0x23255, size: 0x8, addend: 0x0, symName: __ZNKSt3__16vectorIPN3csv3RowENS_9allocatorIS3_EEE11__make_iterB7v160006EPKS3_, symObjAddr: 0xA3D0, symBinAddr: 0x1000125C0, symSize: 0x34 }
  - { offsetInCU: 0x129BE, offset: 0x23289, size: 0x8, addend: 0x0, symName: __ZNSt3__111__wrap_iterIPKPN3csv3RowEEC1B7v160006EPKvS5_, symObjAddr: 0xA404, symBinAddr: 0x1000125F4, symSize: 0x3C }
  - { offsetInCU: 0x12A03, offset: 0x232CE, size: 0x8, addend: 0x0, symName: __ZNSt3__111__wrap_iterIPKPN3csv3RowEEC2B7v160006EPKvS5_, symObjAddr: 0xA440, symBinAddr: 0x100012630, symSize: 0x24 }
...
